
.\System.elf:     file format elf32-littlearm


Disassembly of section .isr_vector:

08000000 <g_pfnVectors>:
 8000000:	20030000 	andcs	r0, r3, r0
 8000004:	0800a12d 	stmdaeq	r0, {r0, r2, r3, r5, r8, sp, pc}
 8000008:	0800a17d 	stmdaeq	r0, {r0, r2, r3, r4, r5, r6, r8, sp, pc}
 800000c:	0800a17d 	stmdaeq	r0, {r0, r2, r3, r4, r5, r6, r8, sp, pc}
 8000010:	0800a17d 	stmdaeq	r0, {r0, r2, r3, r4, r5, r6, r8, sp, pc}
 8000014:	0800a17d 	stmdaeq	r0, {r0, r2, r3, r4, r5, r6, r8, sp, pc}
 8000018:	0800a17d 	stmdaeq	r0, {r0, r2, r3, r4, r5, r6, r8, sp, pc}
	...
 800002c:	0800909d 	stmdaeq	r0, {r0, r2, r3, r4, r7, ip, pc}
 8000030:	0800a17d 	stmdaeq	r0, {r0, r2, r3, r4, r5, r6, r8, sp, pc}
 8000034:	00000000 	andeq	r0, r0, r0
 8000038:	0800909d 	stmdaeq	r0, {r0, r2, r3, r4, r7, ip, pc}
 800003c:	0800909d 	stmdaeq	r0, {r0, r2, r3, r4, r7, ip, pc}
 8000040:	0800909d 	stmdaeq	r0, {r0, r2, r3, r4, r7, ip, pc}
 8000044:	0800909d 	stmdaeq	r0, {r0, r2, r3, r4, r7, ip, pc}
 8000048:	0800909d 	stmdaeq	r0, {r0, r2, r3, r4, r7, ip, pc}
 800004c:	0800909d 	stmdaeq	r0, {r0, r2, r3, r4, r7, ip, pc}
 8000050:	0800909d 	stmdaeq	r0, {r0, r2, r3, r4, r7, ip, pc}
 8000054:	0800909d 	stmdaeq	r0, {r0, r2, r3, r4, r7, ip, pc}
 8000058:	0800909d 	stmdaeq	r0, {r0, r2, r3, r4, r7, ip, pc}
 800005c:	0800909d 	stmdaeq	r0, {r0, r2, r3, r4, r7, ip, pc}
 8000060:	0800909d 	stmdaeq	r0, {r0, r2, r3, r4, r7, ip, pc}
 8000064:	0800909d 	stmdaeq	r0, {r0, r2, r3, r4, r7, ip, pc}
 8000068:	0800909d 	stmdaeq	r0, {r0, r2, r3, r4, r7, ip, pc}
 800006c:	0800909d 	stmdaeq	r0, {r0, r2, r3, r4, r7, ip, pc}
 8000070:	0800909d 	stmdaeq	r0, {r0, r2, r3, r4, r7, ip, pc}
 8000074:	0800909d 	stmdaeq	r0, {r0, r2, r3, r4, r7, ip, pc}
 8000078:	0800909d 	stmdaeq	r0, {r0, r2, r3, r4, r7, ip, pc}
 800007c:	0800909d 	stmdaeq	r0, {r0, r2, r3, r4, r7, ip, pc}
 8000080:	0800909d 	stmdaeq	r0, {r0, r2, r3, r4, r7, ip, pc}
 8000084:	0800909d 	stmdaeq	r0, {r0, r2, r3, r4, r7, ip, pc}
 8000088:	0800909d 	stmdaeq	r0, {r0, r2, r3, r4, r7, ip, pc}
 800008c:	0800909d 	stmdaeq	r0, {r0, r2, r3, r4, r7, ip, pc}
 8000090:	0800909d 	stmdaeq	r0, {r0, r2, r3, r4, r7, ip, pc}
 8000094:	0800909d 	stmdaeq	r0, {r0, r2, r3, r4, r7, ip, pc}
 8000098:	0800909d 	stmdaeq	r0, {r0, r2, r3, r4, r7, ip, pc}
 800009c:	0800909d 	stmdaeq	r0, {r0, r2, r3, r4, r7, ip, pc}
 80000a0:	0800909d 	stmdaeq	r0, {r0, r2, r3, r4, r7, ip, pc}
 80000a4:	0800909d 	stmdaeq	r0, {r0, r2, r3, r4, r7, ip, pc}
 80000a8:	0800909d 	stmdaeq	r0, {r0, r2, r3, r4, r7, ip, pc}
 80000ac:	0800909d 	stmdaeq	r0, {r0, r2, r3, r4, r7, ip, pc}
 80000b0:	0800909d 	stmdaeq	r0, {r0, r2, r3, r4, r7, ip, pc}
 80000b4:	0800909d 	stmdaeq	r0, {r0, r2, r3, r4, r7, ip, pc}
 80000b8:	0800909d 	stmdaeq	r0, {r0, r2, r3, r4, r7, ip, pc}
 80000bc:	0800909d 	stmdaeq	r0, {r0, r2, r3, r4, r7, ip, pc}
 80000c0:	0800909d 	stmdaeq	r0, {r0, r2, r3, r4, r7, ip, pc}
 80000c4:	0800909d 	stmdaeq	r0, {r0, r2, r3, r4, r7, ip, pc}
 80000c8:	0800909d 	stmdaeq	r0, {r0, r2, r3, r4, r7, ip, pc}
 80000cc:	0800909d 	stmdaeq	r0, {r0, r2, r3, r4, r7, ip, pc}
 80000d0:	0800909d 	stmdaeq	r0, {r0, r2, r3, r4, r7, ip, pc}
 80000d4:	0800909d 	stmdaeq	r0, {r0, r2, r3, r4, r7, ip, pc}
 80000d8:	0800909d 	stmdaeq	r0, {r0, r2, r3, r4, r7, ip, pc}
 80000dc:	0800909d 	stmdaeq	r0, {r0, r2, r3, r4, r7, ip, pc}
 80000e0:	0800909d 	stmdaeq	r0, {r0, r2, r3, r4, r7, ip, pc}
 80000e4:	0800909d 	stmdaeq	r0, {r0, r2, r3, r4, r7, ip, pc}
 80000e8:	0800909d 	stmdaeq	r0, {r0, r2, r3, r4, r7, ip, pc}
 80000ec:	0800909d 	stmdaeq	r0, {r0, r2, r3, r4, r7, ip, pc}
 80000f0:	0800909d 	stmdaeq	r0, {r0, r2, r3, r4, r7, ip, pc}
 80000f4:	0800909d 	stmdaeq	r0, {r0, r2, r3, r4, r7, ip, pc}
 80000f8:	0800909d 	stmdaeq	r0, {r0, r2, r3, r4, r7, ip, pc}
 80000fc:	00000000 	andeq	r0, r0, r0
 8000100:	0800909d 	stmdaeq	r0, {r0, r2, r3, r4, r7, ip, pc}
 8000104:	0800909d 	stmdaeq	r0, {r0, r2, r3, r4, r7, ip, pc}
 8000108:	0800909d 	stmdaeq	r0, {r0, r2, r3, r4, r7, ip, pc}
 800010c:	0800909d 	stmdaeq	r0, {r0, r2, r3, r4, r7, ip, pc}
 8000110:	0800909d 	stmdaeq	r0, {r0, r2, r3, r4, r7, ip, pc}
 8000114:	0800909d 	stmdaeq	r0, {r0, r2, r3, r4, r7, ip, pc}
 8000118:	0800909d 	stmdaeq	r0, {r0, r2, r3, r4, r7, ip, pc}
 800011c:	0800909d 	stmdaeq	r0, {r0, r2, r3, r4, r7, ip, pc}
 8000120:	0800909d 	stmdaeq	r0, {r0, r2, r3, r4, r7, ip, pc}
 8000124:	0800909d 	stmdaeq	r0, {r0, r2, r3, r4, r7, ip, pc}
 8000128:	0800909d 	stmdaeq	r0, {r0, r2, r3, r4, r7, ip, pc}
 800012c:	0800909d 	stmdaeq	r0, {r0, r2, r3, r4, r7, ip, pc}
 8000130:	0800909d 	stmdaeq	r0, {r0, r2, r3, r4, r7, ip, pc}
 8000134:	0800909d 	stmdaeq	r0, {r0, r2, r3, r4, r7, ip, pc}
 8000138:	0800909d 	stmdaeq	r0, {r0, r2, r3, r4, r7, ip, pc}
 800013c:	0800909d 	stmdaeq	r0, {r0, r2, r3, r4, r7, ip, pc}
 8000140:	0800909d 	stmdaeq	r0, {r0, r2, r3, r4, r7, ip, pc}
 8000144:	0800909d 	stmdaeq	r0, {r0, r2, r3, r4, r7, ip, pc}
 8000148:	0800909d 	stmdaeq	r0, {r0, r2, r3, r4, r7, ip, pc}
 800014c:	0800909d 	stmdaeq	r0, {r0, r2, r3, r4, r7, ip, pc}
 8000150:	0800909d 	stmdaeq	r0, {r0, r2, r3, r4, r7, ip, pc}
 8000154:	0800909d 	stmdaeq	r0, {r0, r2, r3, r4, r7, ip, pc}
 8000158:	0800909d 	stmdaeq	r0, {r0, r2, r3, r4, r7, ip, pc}
 800015c:	0800909d 	stmdaeq	r0, {r0, r2, r3, r4, r7, ip, pc}
 8000160:	0800909d 	stmdaeq	r0, {r0, r2, r3, r4, r7, ip, pc}
 8000164:	0800909d 	stmdaeq	r0, {r0, r2, r3, r4, r7, ip, pc}
 8000168:	0800909d 	stmdaeq	r0, {r0, r2, r3, r4, r7, ip, pc}
 800016c:	0800909d 	stmdaeq	r0, {r0, r2, r3, r4, r7, ip, pc}
 8000170:	0800909d 	stmdaeq	r0, {r0, r2, r3, r4, r7, ip, pc}
 8000174:	0800909d 	stmdaeq	r0, {r0, r2, r3, r4, r7, ip, pc}
	...
 8000180:	0800909d 	stmdaeq	r0, {r0, r2, r3, r4, r7, ip, pc}
 8000184:	0800909d 	stmdaeq	r0, {r0, r2, r3, r4, r7, ip, pc}
 8000188:	0800909d 	stmdaeq	r0, {r0, r2, r3, r4, r7, ip, pc}
 800018c:	0800909d 	stmdaeq	r0, {r0, r2, r3, r4, r7, ip, pc}
 8000190:	0800909d 	stmdaeq	r0, {r0, r2, r3, r4, r7, ip, pc}
 8000194:	0800909d 	stmdaeq	r0, {r0, r2, r3, r4, r7, ip, pc}
	...
 80001a8:	0800909d 	stmdaeq	r0, {r0, r2, r3, r4, r7, ip, pc}
 80001ac:	0800909d 	stmdaeq	r0, {r0, r2, r3, r4, r7, ip, pc}
 80001b0:	0800909d 	stmdaeq	r0, {r0, r2, r3, r4, r7, ip, pc}
 80001b4:	0800909d 	stmdaeq	r0, {r0, r2, r3, r4, r7, ip, pc}
 80001b8:	0800909d 	stmdaeq	r0, {r0, r2, r3, r4, r7, ip, pc}

Disassembly of section .text:

080001bc <__do_global_dtors_aux>:
 80001bc:	b510      	push	{r4, lr}
 80001be:	4c05      	ldr	r4, [pc, #20]	; (80001d4 <__do_global_dtors_aux+0x18>)
 80001c0:	7823      	ldrb	r3, [r4, #0]
 80001c2:	b933      	cbnz	r3, 80001d2 <__do_global_dtors_aux+0x16>
 80001c4:	4b04      	ldr	r3, [pc, #16]	; (80001d8 <__do_global_dtors_aux+0x1c>)
 80001c6:	b113      	cbz	r3, 80001ce <__do_global_dtors_aux+0x12>
 80001c8:	4804      	ldr	r0, [pc, #16]	; (80001dc <__do_global_dtors_aux+0x20>)
 80001ca:	f3af 8000 	nop.w
 80001ce:	2301      	movs	r3, #1
 80001d0:	7023      	strb	r3, [r4, #0]
 80001d2:	bd10      	pop	{r4, pc}
 80001d4:	2004007c 	andcs	r0, r4, ip, ror r0
 80001d8:	00000000 	andeq	r0, r0, r0
 80001dc:	0800a30c 	stmdaeq	r0, {r2, r3, r8, r9, sp, pc}

080001e0 <frame_dummy>:
 80001e0:	b508      	push	{r3, lr}
 80001e2:	4b03      	ldr	r3, [pc, #12]	; (80001f0 <frame_dummy+0x10>)
 80001e4:	b11b      	cbz	r3, 80001ee <frame_dummy+0xe>
 80001e6:	4903      	ldr	r1, [pc, #12]	; (80001f4 <frame_dummy+0x14>)
 80001e8:	4803      	ldr	r0, [pc, #12]	; (80001f8 <frame_dummy+0x18>)
 80001ea:	f3af 8000 	nop.w
 80001ee:	bd08      	pop	{r3, pc}
 80001f0:	00000000 	andeq	r0, r0, r0
 80001f4:	20040080 	andcs	r0, r4, r0, lsl #1
 80001f8:	0800a30c 	stmdaeq	r0, {r2, r3, r8, r9, sp, pc}

080001fc <strcmp>:
 80001fc:	f810 2b01 	ldrb.w	r2, [r0], #1
 8000200:	f811 3b01 	ldrb.w	r3, [r1], #1
 8000204:	2a01      	cmp	r2, #1
 8000206:	bf28      	it	cs
 8000208:	429a      	cmpcs	r2, r3
 800020a:	d0f7      	beq.n	80001fc <strcmp>
 800020c:	1ad0      	subs	r0, r2, r3
 800020e:	4770      	bx	lr

08000210 <strlen>:
 8000210:	4603      	mov	r3, r0
 8000212:	f813 2b01 	ldrb.w	r2, [r3], #1
 8000216:	2a00      	cmp	r2, #0
 8000218:	d1fb      	bne.n	8000212 <strlen+0x2>
 800021a:	1a18      	subs	r0, r3, r0
 800021c:	3801      	subs	r0, #1
 800021e:	4770      	bx	lr

08000220 <HAL_GetTick>:
 8000220:	b480      	push	{r7}
 8000222:	af00      	add	r7, sp, #0
 8000224:	4b03      	ldr	r3, [pc, #12]	; (8000234 <HAL_GetTick+0x14>)
 8000226:	681b      	ldr	r3, [r3, #0]
 8000228:	4618      	mov	r0, r3
 800022a:	46bd      	mov	sp, r7
 800022c:	f85d 7b04 	ldr.w	r7, [sp], #4
 8000230:	4770      	bx	lr
 8000232:	bf00      	nop
 8000234:	20081aa8 	andcs	r1, r8, r8, lsr #21

08000238 <NVIC_GetPriorityGrouping>:
 8000238:	b480      	push	{r7}
 800023a:	af00      	add	r7, sp, #0
 800023c:	4b04      	ldr	r3, [pc, #16]	; (8000250 <NVIC_GetPriorityGrouping+0x18>)
 800023e:	68db      	ldr	r3, [r3, #12]
 8000240:	0a1b      	lsrs	r3, r3, #8
 8000242:	f003 0307 	and.w	r3, r3, #7
 8000246:	4618      	mov	r0, r3
 8000248:	46bd      	mov	sp, r7
 800024a:	f85d 7b04 	ldr.w	r7, [sp], #4
 800024e:	4770      	bx	lr
 8000250:	e000ed00 	and	lr, r0, r0, lsl #26

08000254 <NVIC_EnableIRQ>:
 8000254:	b480      	push	{r7}
 8000256:	b083      	sub	sp, #12
 8000258:	af00      	add	r7, sp, #0
 800025a:	4603      	mov	r3, r0
 800025c:	71fb      	strb	r3, [r7, #7]
 800025e:	4909      	ldr	r1, [pc, #36]	; (8000284 <NVIC_EnableIRQ+0x30>)
 8000260:	f997 3007 	ldrsb.w	r3, [r7, #7]
 8000264:	095b      	lsrs	r3, r3, #5
 8000266:	79fa      	ldrb	r2, [r7, #7]
 8000268:	f002 021f 	and.w	r2, r2, #31
 800026c:	2001      	movs	r0, #1
 800026e:	fa00 f202 	lsl.w	r2, r0, r2
 8000272:	f841 2023 	str.w	r2, [r1, r3, lsl #2]
 8000276:	bf00      	nop
 8000278:	370c      	adds	r7, #12
 800027a:	46bd      	mov	sp, r7
 800027c:	f85d 7b04 	ldr.w	r7, [sp], #4
 8000280:	4770      	bx	lr
 8000282:	bf00      	nop
 8000284:	e000e100 	and	lr, r0, r0, lsl #2

08000288 <NVIC_DisableIRQ>:
 8000288:	b480      	push	{r7}
 800028a:	b083      	sub	sp, #12
 800028c:	af00      	add	r7, sp, #0
 800028e:	4603      	mov	r3, r0
 8000290:	71fb      	strb	r3, [r7, #7]
 8000292:	4909      	ldr	r1, [pc, #36]	; (80002b8 <NVIC_DisableIRQ+0x30>)
 8000294:	f997 3007 	ldrsb.w	r3, [r7, #7]
 8000298:	095b      	lsrs	r3, r3, #5
 800029a:	79fa      	ldrb	r2, [r7, #7]
 800029c:	f002 021f 	and.w	r2, r2, #31
 80002a0:	2001      	movs	r0, #1
 80002a2:	fa00 f202 	lsl.w	r2, r0, r2
 80002a6:	3320      	adds	r3, #32
 80002a8:	f841 2023 	str.w	r2, [r1, r3, lsl #2]
 80002ac:	bf00      	nop
 80002ae:	370c      	adds	r7, #12
 80002b0:	46bd      	mov	sp, r7
 80002b2:	f85d 7b04 	ldr.w	r7, [sp], #4
 80002b6:	4770      	bx	lr
 80002b8:	e000e100 	and	lr, r0, r0, lsl #2

080002bc <NVIC_SetPriority>:
 80002bc:	b480      	push	{r7}
 80002be:	b083      	sub	sp, #12
 80002c0:	af00      	add	r7, sp, #0
 80002c2:	4603      	mov	r3, r0
 80002c4:	6039      	str	r1, [r7, #0]
 80002c6:	71fb      	strb	r3, [r7, #7]
 80002c8:	f997 3007 	ldrsb.w	r3, [r7, #7]
 80002cc:	2b00      	cmp	r3, #0
 80002ce:	da0b      	bge.n	80002e8 <NVIC_SetPriority+0x2c>
 80002d0:	490d      	ldr	r1, [pc, #52]	; (8000308 <NVIC_SetPriority+0x4c>)
 80002d2:	79fb      	ldrb	r3, [r7, #7]
 80002d4:	f003 030f 	and.w	r3, r3, #15
 80002d8:	3b04      	subs	r3, #4
 80002da:	683a      	ldr	r2, [r7, #0]
 80002dc:	b2d2      	uxtb	r2, r2
 80002de:	0112      	lsls	r2, r2, #4
 80002e0:	b2d2      	uxtb	r2, r2
 80002e2:	440b      	add	r3, r1
 80002e4:	761a      	strb	r2, [r3, #24]
 80002e6:	e009      	b.n	80002fc <NVIC_SetPriority+0x40>
 80002e8:	4908      	ldr	r1, [pc, #32]	; (800030c <NVIC_SetPriority+0x50>)
 80002ea:	f997 3007 	ldrsb.w	r3, [r7, #7]
 80002ee:	683a      	ldr	r2, [r7, #0]
 80002f0:	b2d2      	uxtb	r2, r2
 80002f2:	0112      	lsls	r2, r2, #4
 80002f4:	b2d2      	uxtb	r2, r2
 80002f6:	440b      	add	r3, r1
 80002f8:	f883 2300 	strb.w	r2, [r3, #768]	; 0x300
 80002fc:	bf00      	nop
 80002fe:	370c      	adds	r7, #12
 8000300:	46bd      	mov	sp, r7
 8000302:	f85d 7b04 	ldr.w	r7, [sp], #4
 8000306:	4770      	bx	lr
 8000308:	e000ed00 	and	lr, r0, r0, lsl #26
 800030c:	e000e100 	and	lr, r0, r0, lsl #2

08000310 <NVIC_EncodePriority>:
 8000310:	b480      	push	{r7}
 8000312:	b089      	sub	sp, #36	; 0x24
 8000314:	af00      	add	r7, sp, #0
 8000316:	60f8      	str	r0, [r7, #12]
 8000318:	60b9      	str	r1, [r7, #8]
 800031a:	607a      	str	r2, [r7, #4]
 800031c:	68fb      	ldr	r3, [r7, #12]
 800031e:	f003 0307 	and.w	r3, r3, #7
 8000322:	61fb      	str	r3, [r7, #28]
 8000324:	69fb      	ldr	r3, [r7, #28]
 8000326:	f1c3 0307 	rsb	r3, r3, #7
 800032a:	2b04      	cmp	r3, #4
 800032c:	bf28      	it	cs
 800032e:	2304      	movcs	r3, #4
 8000330:	61bb      	str	r3, [r7, #24]
 8000332:	69fb      	ldr	r3, [r7, #28]
 8000334:	3304      	adds	r3, #4
 8000336:	2b06      	cmp	r3, #6
 8000338:	d902      	bls.n	8000340 <NVIC_EncodePriority+0x30>
 800033a:	69fb      	ldr	r3, [r7, #28]
 800033c:	3b03      	subs	r3, #3
 800033e:	e000      	b.n	8000342 <NVIC_EncodePriority+0x32>
 8000340:	2300      	movs	r3, #0
 8000342:	617b      	str	r3, [r7, #20]
 8000344:	2201      	movs	r2, #1
 8000346:	69bb      	ldr	r3, [r7, #24]
 8000348:	fa02 f303 	lsl.w	r3, r2, r3
 800034c:	1e5a      	subs	r2, r3, #1
 800034e:	68bb      	ldr	r3, [r7, #8]
 8000350:	401a      	ands	r2, r3
 8000352:	697b      	ldr	r3, [r7, #20]
 8000354:	409a      	lsls	r2, r3
 8000356:	2101      	movs	r1, #1
 8000358:	697b      	ldr	r3, [r7, #20]
 800035a:	fa01 f303 	lsl.w	r3, r1, r3
 800035e:	1e59      	subs	r1, r3, #1
 8000360:	687b      	ldr	r3, [r7, #4]
 8000362:	400b      	ands	r3, r1
 8000364:	4313      	orrs	r3, r2
 8000366:	4618      	mov	r0, r3
 8000368:	3724      	adds	r7, #36	; 0x24
 800036a:	46bd      	mov	sp, r7
 800036c:	f85d 7b04 	ldr.w	r7, [sp], #4
 8000370:	4770      	bx	lr

08000372 <HAL_NVIC_SetPriority>:
 8000372:	b580      	push	{r7, lr}
 8000374:	b086      	sub	sp, #24
 8000376:	af00      	add	r7, sp, #0
 8000378:	4603      	mov	r3, r0
 800037a:	60b9      	str	r1, [r7, #8]
 800037c:	607a      	str	r2, [r7, #4]
 800037e:	73fb      	strb	r3, [r7, #15]
 8000380:	2300      	movs	r3, #0
 8000382:	617b      	str	r3, [r7, #20]
 8000384:	f7ff ff58 	bl	8000238 <NVIC_GetPriorityGrouping>
 8000388:	6178      	str	r0, [r7, #20]
 800038a:	687a      	ldr	r2, [r7, #4]
 800038c:	68b9      	ldr	r1, [r7, #8]
 800038e:	6978      	ldr	r0, [r7, #20]
 8000390:	f7ff ffbe 	bl	8000310 <NVIC_EncodePriority>
 8000394:	4602      	mov	r2, r0
 8000396:	f997 300f 	ldrsb.w	r3, [r7, #15]
 800039a:	4611      	mov	r1, r2
 800039c:	4618      	mov	r0, r3
 800039e:	f7ff ff8d 	bl	80002bc <NVIC_SetPriority>
 80003a2:	bf00      	nop
 80003a4:	3718      	adds	r7, #24
 80003a6:	46bd      	mov	sp, r7
 80003a8:	bd80      	pop	{r7, pc}

080003aa <HAL_NVIC_EnableIRQ>:
 80003aa:	b580      	push	{r7, lr}
 80003ac:	b082      	sub	sp, #8
 80003ae:	af00      	add	r7, sp, #0
 80003b0:	4603      	mov	r3, r0
 80003b2:	71fb      	strb	r3, [r7, #7]
 80003b4:	f997 3007 	ldrsb.w	r3, [r7, #7]
 80003b8:	4618      	mov	r0, r3
 80003ba:	f7ff ff4b 	bl	8000254 <NVIC_EnableIRQ>
 80003be:	bf00      	nop
 80003c0:	3708      	adds	r7, #8
 80003c2:	46bd      	mov	sp, r7
 80003c4:	bd80      	pop	{r7, pc}

080003c6 <HAL_NVIC_DisableIRQ>:
 80003c6:	b580      	push	{r7, lr}
 80003c8:	b082      	sub	sp, #8
 80003ca:	af00      	add	r7, sp, #0
 80003cc:	4603      	mov	r3, r0
 80003ce:	71fb      	strb	r3, [r7, #7]
 80003d0:	f997 3007 	ldrsb.w	r3, [r7, #7]
 80003d4:	4618      	mov	r0, r3
 80003d6:	f7ff ff57 	bl	8000288 <NVIC_DisableIRQ>
 80003da:	bf00      	nop
 80003dc:	3708      	adds	r7, #8
 80003de:	46bd      	mov	sp, r7
 80003e0:	bd80      	pop	{r7, pc}

080003e2 <HAL_DMA_Abort_IT>:
 80003e2:	b580      	push	{r7, lr}
 80003e4:	b084      	sub	sp, #16
 80003e6:	af00      	add	r7, sp, #0
 80003e8:	6078      	str	r0, [r7, #4]
 80003ea:	2300      	movs	r3, #0
 80003ec:	73fb      	strb	r3, [r7, #15]
 80003ee:	687b      	ldr	r3, [r7, #4]
 80003f0:	f893 3025 	ldrb.w	r3, [r3, #37]	; 0x25
 80003f4:	b2db      	uxtb	r3, r3
 80003f6:	2b02      	cmp	r3, #2
 80003f8:	d005      	beq.n	8000406 <HAL_DMA_Abort_IT+0x24>
 80003fa:	687b      	ldr	r3, [r7, #4]
 80003fc:	2204      	movs	r2, #4
 80003fe:	63da      	str	r2, [r3, #60]	; 0x3c
 8000400:	2301      	movs	r3, #1
 8000402:	73fb      	strb	r3, [r7, #15]
 8000404:	e047      	b.n	8000496 <HAL_DMA_Abort_IT+0xb4>
 8000406:	687b      	ldr	r3, [r7, #4]
 8000408:	681b      	ldr	r3, [r3, #0]
 800040a:	687a      	ldr	r2, [r7, #4]
 800040c:	6812      	ldr	r2, [r2, #0]
 800040e:	6812      	ldr	r2, [r2, #0]
 8000410:	f022 020e 	bic.w	r2, r2, #14
 8000414:	601a      	str	r2, [r3, #0]
 8000416:	687b      	ldr	r3, [r7, #4]
 8000418:	681b      	ldr	r3, [r3, #0]
 800041a:	687a      	ldr	r2, [r7, #4]
 800041c:	6812      	ldr	r2, [r2, #0]
 800041e:	6812      	ldr	r2, [r2, #0]
 8000420:	f022 0201 	bic.w	r2, r2, #1
 8000424:	601a      	str	r2, [r3, #0]
 8000426:	687b      	ldr	r3, [r7, #4]
 8000428:	6c9b      	ldr	r3, [r3, #72]	; 0x48
 800042a:	687a      	ldr	r2, [r7, #4]
 800042c:	6c92      	ldr	r2, [r2, #72]	; 0x48
 800042e:	6812      	ldr	r2, [r2, #0]
 8000430:	f422 7280 	bic.w	r2, r2, #256	; 0x100
 8000434:	601a      	str	r2, [r3, #0]
 8000436:	687b      	ldr	r3, [r7, #4]
 8000438:	6c1b      	ldr	r3, [r3, #64]	; 0x40
 800043a:	687a      	ldr	r2, [r7, #4]
 800043c:	6c52      	ldr	r2, [r2, #68]	; 0x44
 800043e:	f002 021c 	and.w	r2, r2, #28
 8000442:	2101      	movs	r1, #1
 8000444:	fa01 f202 	lsl.w	r2, r1, r2
 8000448:	605a      	str	r2, [r3, #4]
 800044a:	687b      	ldr	r3, [r7, #4]
 800044c:	6cdb      	ldr	r3, [r3, #76]	; 0x4c
 800044e:	687a      	ldr	r2, [r7, #4]
 8000450:	6d12      	ldr	r2, [r2, #80]	; 0x50
 8000452:	605a      	str	r2, [r3, #4]
 8000454:	687b      	ldr	r3, [r7, #4]
 8000456:	6d5b      	ldr	r3, [r3, #84]	; 0x54
 8000458:	2b00      	cmp	r3, #0
 800045a:	d00c      	beq.n	8000476 <HAL_DMA_Abort_IT+0x94>
 800045c:	687b      	ldr	r3, [r7, #4]
 800045e:	6d5b      	ldr	r3, [r3, #84]	; 0x54
 8000460:	687a      	ldr	r2, [r7, #4]
 8000462:	6d52      	ldr	r2, [r2, #84]	; 0x54
 8000464:	6812      	ldr	r2, [r2, #0]
 8000466:	f422 7280 	bic.w	r2, r2, #256	; 0x100
 800046a:	601a      	str	r2, [r3, #0]
 800046c:	687b      	ldr	r3, [r7, #4]
 800046e:	6d9b      	ldr	r3, [r3, #88]	; 0x58
 8000470:	687a      	ldr	r2, [r7, #4]
 8000472:	6dd2      	ldr	r2, [r2, #92]	; 0x5c
 8000474:	605a      	str	r2, [r3, #4]
 8000476:	687b      	ldr	r3, [r7, #4]
 8000478:	2201      	movs	r2, #1
 800047a:	f883 2025 	strb.w	r2, [r3, #37]	; 0x25
 800047e:	687b      	ldr	r3, [r7, #4]
 8000480:	2200      	movs	r2, #0
 8000482:	f883 2024 	strb.w	r2, [r3, #36]	; 0x24
 8000486:	687b      	ldr	r3, [r7, #4]
 8000488:	6b9b      	ldr	r3, [r3, #56]	; 0x38
 800048a:	2b00      	cmp	r3, #0
 800048c:	d003      	beq.n	8000496 <HAL_DMA_Abort_IT+0xb4>
 800048e:	687b      	ldr	r3, [r7, #4]
 8000490:	6b9b      	ldr	r3, [r3, #56]	; 0x38
 8000492:	6878      	ldr	r0, [r7, #4]
 8000494:	4798      	blx	r3
 8000496:	7bfb      	ldrb	r3, [r7, #15]
 8000498:	4618      	mov	r0, r3
 800049a:	3710      	adds	r7, #16
 800049c:	46bd      	mov	sp, r7
 800049e:	bd80      	pop	{r7, pc}

080004a0 <HAL_DMA_GetState>:
 80004a0:	b480      	push	{r7}
 80004a2:	b083      	sub	sp, #12
 80004a4:	af00      	add	r7, sp, #0
 80004a6:	6078      	str	r0, [r7, #4]
 80004a8:	687b      	ldr	r3, [r7, #4]
 80004aa:	f893 3025 	ldrb.w	r3, [r3, #37]	; 0x25
 80004ae:	b2db      	uxtb	r3, r3
 80004b0:	4618      	mov	r0, r3
 80004b2:	370c      	adds	r7, #12
 80004b4:	46bd      	mov	sp, r7
 80004b6:	f85d 7b04 	ldr.w	r7, [sp], #4
 80004ba:	4770      	bx	lr

080004bc <HAL_GPIO_Init>:
 80004bc:	b480      	push	{r7}
 80004be:	b087      	sub	sp, #28
 80004c0:	af00      	add	r7, sp, #0
 80004c2:	6078      	str	r0, [r7, #4]
 80004c4:	6039      	str	r1, [r7, #0]
 80004c6:	2300      	movs	r3, #0
 80004c8:	617b      	str	r3, [r7, #20]
 80004ca:	e166      	b.n	800079a <HAL_GPIO_Init+0x2de>
 80004cc:	683b      	ldr	r3, [r7, #0]
 80004ce:	681a      	ldr	r2, [r3, #0]
 80004d0:	2101      	movs	r1, #1
 80004d2:	697b      	ldr	r3, [r7, #20]
 80004d4:	fa01 f303 	lsl.w	r3, r1, r3
 80004d8:	4013      	ands	r3, r2
 80004da:	60fb      	str	r3, [r7, #12]
 80004dc:	68fb      	ldr	r3, [r7, #12]
 80004de:	2b00      	cmp	r3, #0
 80004e0:	f000 8158 	beq.w	8000794 <HAL_GPIO_Init+0x2d8>
 80004e4:	683b      	ldr	r3, [r7, #0]
 80004e6:	685b      	ldr	r3, [r3, #4]
 80004e8:	f003 0303 	and.w	r3, r3, #3
 80004ec:	2b01      	cmp	r3, #1
 80004ee:	d005      	beq.n	80004fc <HAL_GPIO_Init+0x40>
 80004f0:	683b      	ldr	r3, [r7, #0]
 80004f2:	685b      	ldr	r3, [r3, #4]
 80004f4:	f003 0303 	and.w	r3, r3, #3
 80004f8:	2b02      	cmp	r3, #2
 80004fa:	d130      	bne.n	800055e <HAL_GPIO_Init+0xa2>
 80004fc:	687b      	ldr	r3, [r7, #4]
 80004fe:	689b      	ldr	r3, [r3, #8]
 8000500:	613b      	str	r3, [r7, #16]
 8000502:	697b      	ldr	r3, [r7, #20]
 8000504:	005b      	lsls	r3, r3, #1
 8000506:	2203      	movs	r2, #3
 8000508:	fa02 f303 	lsl.w	r3, r2, r3
 800050c:	43db      	mvns	r3, r3
 800050e:	693a      	ldr	r2, [r7, #16]
 8000510:	4013      	ands	r3, r2
 8000512:	613b      	str	r3, [r7, #16]
 8000514:	683b      	ldr	r3, [r7, #0]
 8000516:	68da      	ldr	r2, [r3, #12]
 8000518:	697b      	ldr	r3, [r7, #20]
 800051a:	005b      	lsls	r3, r3, #1
 800051c:	fa02 f303 	lsl.w	r3, r2, r3
 8000520:	693a      	ldr	r2, [r7, #16]
 8000522:	4313      	orrs	r3, r2
 8000524:	613b      	str	r3, [r7, #16]
 8000526:	687b      	ldr	r3, [r7, #4]
 8000528:	693a      	ldr	r2, [r7, #16]
 800052a:	609a      	str	r2, [r3, #8]
 800052c:	687b      	ldr	r3, [r7, #4]
 800052e:	685b      	ldr	r3, [r3, #4]
 8000530:	613b      	str	r3, [r7, #16]
 8000532:	2201      	movs	r2, #1
 8000534:	697b      	ldr	r3, [r7, #20]
 8000536:	fa02 f303 	lsl.w	r3, r2, r3
 800053a:	43db      	mvns	r3, r3
 800053c:	693a      	ldr	r2, [r7, #16]
 800053e:	4013      	ands	r3, r2
 8000540:	613b      	str	r3, [r7, #16]
 8000542:	683b      	ldr	r3, [r7, #0]
 8000544:	685b      	ldr	r3, [r3, #4]
 8000546:	091b      	lsrs	r3, r3, #4
 8000548:	f003 0201 	and.w	r2, r3, #1
 800054c:	697b      	ldr	r3, [r7, #20]
 800054e:	fa02 f303 	lsl.w	r3, r2, r3
 8000552:	693a      	ldr	r2, [r7, #16]
 8000554:	4313      	orrs	r3, r2
 8000556:	613b      	str	r3, [r7, #16]
 8000558:	687b      	ldr	r3, [r7, #4]
 800055a:	693a      	ldr	r2, [r7, #16]
 800055c:	605a      	str	r2, [r3, #4]
 800055e:	683b      	ldr	r3, [r7, #0]
 8000560:	685b      	ldr	r3, [r3, #4]
 8000562:	f003 0303 	and.w	r3, r3, #3
 8000566:	2b03      	cmp	r3, #3
 8000568:	d017      	beq.n	800059a <HAL_GPIO_Init+0xde>
 800056a:	687b      	ldr	r3, [r7, #4]
 800056c:	68db      	ldr	r3, [r3, #12]
 800056e:	613b      	str	r3, [r7, #16]
 8000570:	697b      	ldr	r3, [r7, #20]
 8000572:	005b      	lsls	r3, r3, #1
 8000574:	2203      	movs	r2, #3
 8000576:	fa02 f303 	lsl.w	r3, r2, r3
 800057a:	43db      	mvns	r3, r3
 800057c:	693a      	ldr	r2, [r7, #16]
 800057e:	4013      	ands	r3, r2
 8000580:	613b      	str	r3, [r7, #16]
 8000582:	683b      	ldr	r3, [r7, #0]
 8000584:	689a      	ldr	r2, [r3, #8]
 8000586:	697b      	ldr	r3, [r7, #20]
 8000588:	005b      	lsls	r3, r3, #1
 800058a:	fa02 f303 	lsl.w	r3, r2, r3
 800058e:	693a      	ldr	r2, [r7, #16]
 8000590:	4313      	orrs	r3, r2
 8000592:	613b      	str	r3, [r7, #16]
 8000594:	687b      	ldr	r3, [r7, #4]
 8000596:	693a      	ldr	r2, [r7, #16]
 8000598:	60da      	str	r2, [r3, #12]
 800059a:	683b      	ldr	r3, [r7, #0]
 800059c:	685b      	ldr	r3, [r3, #4]
 800059e:	f003 0303 	and.w	r3, r3, #3
 80005a2:	2b02      	cmp	r3, #2
 80005a4:	d123      	bne.n	80005ee <HAL_GPIO_Init+0x132>
 80005a6:	697b      	ldr	r3, [r7, #20]
 80005a8:	08da      	lsrs	r2, r3, #3
 80005aa:	687b      	ldr	r3, [r7, #4]
 80005ac:	3208      	adds	r2, #8
 80005ae:	f853 3022 	ldr.w	r3, [r3, r2, lsl #2]
 80005b2:	613b      	str	r3, [r7, #16]
 80005b4:	697b      	ldr	r3, [r7, #20]
 80005b6:	f003 0307 	and.w	r3, r3, #7
 80005ba:	009b      	lsls	r3, r3, #2
 80005bc:	220f      	movs	r2, #15
 80005be:	fa02 f303 	lsl.w	r3, r2, r3
 80005c2:	43db      	mvns	r3, r3
 80005c4:	693a      	ldr	r2, [r7, #16]
 80005c6:	4013      	ands	r3, r2
 80005c8:	613b      	str	r3, [r7, #16]
 80005ca:	683b      	ldr	r3, [r7, #0]
 80005cc:	691a      	ldr	r2, [r3, #16]
 80005ce:	697b      	ldr	r3, [r7, #20]
 80005d0:	f003 0307 	and.w	r3, r3, #7
 80005d4:	009b      	lsls	r3, r3, #2
 80005d6:	fa02 f303 	lsl.w	r3, r2, r3
 80005da:	693a      	ldr	r2, [r7, #16]
 80005dc:	4313      	orrs	r3, r2
 80005de:	613b      	str	r3, [r7, #16]
 80005e0:	697b      	ldr	r3, [r7, #20]
 80005e2:	08da      	lsrs	r2, r3, #3
 80005e4:	687b      	ldr	r3, [r7, #4]
 80005e6:	3208      	adds	r2, #8
 80005e8:	6939      	ldr	r1, [r7, #16]
 80005ea:	f843 1022 	str.w	r1, [r3, r2, lsl #2]
 80005ee:	687b      	ldr	r3, [r7, #4]
 80005f0:	681b      	ldr	r3, [r3, #0]
 80005f2:	613b      	str	r3, [r7, #16]
 80005f4:	697b      	ldr	r3, [r7, #20]
 80005f6:	005b      	lsls	r3, r3, #1
 80005f8:	2203      	movs	r2, #3
 80005fa:	fa02 f303 	lsl.w	r3, r2, r3
 80005fe:	43db      	mvns	r3, r3
 8000600:	693a      	ldr	r2, [r7, #16]
 8000602:	4013      	ands	r3, r2
 8000604:	613b      	str	r3, [r7, #16]
 8000606:	683b      	ldr	r3, [r7, #0]
 8000608:	685b      	ldr	r3, [r3, #4]
 800060a:	f003 0203 	and.w	r2, r3, #3
 800060e:	697b      	ldr	r3, [r7, #20]
 8000610:	005b      	lsls	r3, r3, #1
 8000612:	fa02 f303 	lsl.w	r3, r2, r3
 8000616:	693a      	ldr	r2, [r7, #16]
 8000618:	4313      	orrs	r3, r2
 800061a:	613b      	str	r3, [r7, #16]
 800061c:	687b      	ldr	r3, [r7, #4]
 800061e:	693a      	ldr	r2, [r7, #16]
 8000620:	601a      	str	r2, [r3, #0]
 8000622:	683b      	ldr	r3, [r7, #0]
 8000624:	685b      	ldr	r3, [r3, #4]
 8000626:	f403 3340 	and.w	r3, r3, #196608	; 0x30000
 800062a:	2b00      	cmp	r3, #0
 800062c:	f000 80b2 	beq.w	8000794 <HAL_GPIO_Init+0x2d8>
 8000630:	4a61      	ldr	r2, [pc, #388]	; (80007b8 <HAL_GPIO_Init+0x2fc>)
 8000632:	4b61      	ldr	r3, [pc, #388]	; (80007b8 <HAL_GPIO_Init+0x2fc>)
 8000634:	6e1b      	ldr	r3, [r3, #96]	; 0x60
 8000636:	f043 0301 	orr.w	r3, r3, #1
 800063a:	6613      	str	r3, [r2, #96]	; 0x60
 800063c:	4b5e      	ldr	r3, [pc, #376]	; (80007b8 <HAL_GPIO_Init+0x2fc>)
 800063e:	6e1b      	ldr	r3, [r3, #96]	; 0x60
 8000640:	f003 0301 	and.w	r3, r3, #1
 8000644:	60bb      	str	r3, [r7, #8]
 8000646:	68bb      	ldr	r3, [r7, #8]
 8000648:	4a5c      	ldr	r2, [pc, #368]	; (80007bc <HAL_GPIO_Init+0x300>)
 800064a:	697b      	ldr	r3, [r7, #20]
 800064c:	089b      	lsrs	r3, r3, #2
 800064e:	3302      	adds	r3, #2
 8000650:	f852 3023 	ldr.w	r3, [r2, r3, lsl #2]
 8000654:	613b      	str	r3, [r7, #16]
 8000656:	697b      	ldr	r3, [r7, #20]
 8000658:	f003 0303 	and.w	r3, r3, #3
 800065c:	009b      	lsls	r3, r3, #2
 800065e:	220f      	movs	r2, #15
 8000660:	fa02 f303 	lsl.w	r3, r2, r3
 8000664:	43db      	mvns	r3, r3
 8000666:	693a      	ldr	r2, [r7, #16]
 8000668:	4013      	ands	r3, r2
 800066a:	613b      	str	r3, [r7, #16]
 800066c:	687b      	ldr	r3, [r7, #4]
 800066e:	f1b3 4f90 	cmp.w	r3, #1207959552	; 0x48000000
 8000672:	d02b      	beq.n	80006cc <HAL_GPIO_Init+0x210>
 8000674:	687b      	ldr	r3, [r7, #4]
 8000676:	4a52      	ldr	r2, [pc, #328]	; (80007c0 <HAL_GPIO_Init+0x304>)
 8000678:	4293      	cmp	r3, r2
 800067a:	d025      	beq.n	80006c8 <HAL_GPIO_Init+0x20c>
 800067c:	687b      	ldr	r3, [r7, #4]
 800067e:	4a51      	ldr	r2, [pc, #324]	; (80007c4 <HAL_GPIO_Init+0x308>)
 8000680:	4293      	cmp	r3, r2
 8000682:	d01f      	beq.n	80006c4 <HAL_GPIO_Init+0x208>
 8000684:	687b      	ldr	r3, [r7, #4]
 8000686:	4a50      	ldr	r2, [pc, #320]	; (80007c8 <HAL_GPIO_Init+0x30c>)
 8000688:	4293      	cmp	r3, r2
 800068a:	d019      	beq.n	80006c0 <HAL_GPIO_Init+0x204>
 800068c:	687b      	ldr	r3, [r7, #4]
 800068e:	4a4f      	ldr	r2, [pc, #316]	; (80007cc <HAL_GPIO_Init+0x310>)
 8000690:	4293      	cmp	r3, r2
 8000692:	d013      	beq.n	80006bc <HAL_GPIO_Init+0x200>
 8000694:	687b      	ldr	r3, [r7, #4]
 8000696:	4a4e      	ldr	r2, [pc, #312]	; (80007d0 <HAL_GPIO_Init+0x314>)
 8000698:	4293      	cmp	r3, r2
 800069a:	d00d      	beq.n	80006b8 <HAL_GPIO_Init+0x1fc>
 800069c:	687b      	ldr	r3, [r7, #4]
 800069e:	4a4d      	ldr	r2, [pc, #308]	; (80007d4 <HAL_GPIO_Init+0x318>)
 80006a0:	4293      	cmp	r3, r2
 80006a2:	d007      	beq.n	80006b4 <HAL_GPIO_Init+0x1f8>
 80006a4:	687b      	ldr	r3, [r7, #4]
 80006a6:	4a4c      	ldr	r2, [pc, #304]	; (80007d8 <HAL_GPIO_Init+0x31c>)
 80006a8:	4293      	cmp	r3, r2
 80006aa:	d101      	bne.n	80006b0 <HAL_GPIO_Init+0x1f4>
 80006ac:	2307      	movs	r3, #7
 80006ae:	e00e      	b.n	80006ce <HAL_GPIO_Init+0x212>
 80006b0:	2308      	movs	r3, #8
 80006b2:	e00c      	b.n	80006ce <HAL_GPIO_Init+0x212>
 80006b4:	2306      	movs	r3, #6
 80006b6:	e00a      	b.n	80006ce <HAL_GPIO_Init+0x212>
 80006b8:	2305      	movs	r3, #5
 80006ba:	e008      	b.n	80006ce <HAL_GPIO_Init+0x212>
 80006bc:	2304      	movs	r3, #4
 80006be:	e006      	b.n	80006ce <HAL_GPIO_Init+0x212>
 80006c0:	2303      	movs	r3, #3
 80006c2:	e004      	b.n	80006ce <HAL_GPIO_Init+0x212>
 80006c4:	2302      	movs	r3, #2
 80006c6:	e002      	b.n	80006ce <HAL_GPIO_Init+0x212>
 80006c8:	2301      	movs	r3, #1
 80006ca:	e000      	b.n	80006ce <HAL_GPIO_Init+0x212>
 80006cc:	2300      	movs	r3, #0
 80006ce:	697a      	ldr	r2, [r7, #20]
 80006d0:	f002 0203 	and.w	r2, r2, #3
 80006d4:	0092      	lsls	r2, r2, #2
 80006d6:	4093      	lsls	r3, r2
 80006d8:	693a      	ldr	r2, [r7, #16]
 80006da:	4313      	orrs	r3, r2
 80006dc:	613b      	str	r3, [r7, #16]
 80006de:	4937      	ldr	r1, [pc, #220]	; (80007bc <HAL_GPIO_Init+0x300>)
 80006e0:	697b      	ldr	r3, [r7, #20]
 80006e2:	089b      	lsrs	r3, r3, #2
 80006e4:	3302      	adds	r3, #2
 80006e6:	693a      	ldr	r2, [r7, #16]
 80006e8:	f841 2023 	str.w	r2, [r1, r3, lsl #2]
 80006ec:	4b3b      	ldr	r3, [pc, #236]	; (80007dc <HAL_GPIO_Init+0x320>)
 80006ee:	689b      	ldr	r3, [r3, #8]
 80006f0:	613b      	str	r3, [r7, #16]
 80006f2:	68fb      	ldr	r3, [r7, #12]
 80006f4:	43db      	mvns	r3, r3
 80006f6:	693a      	ldr	r2, [r7, #16]
 80006f8:	4013      	ands	r3, r2
 80006fa:	613b      	str	r3, [r7, #16]
 80006fc:	683b      	ldr	r3, [r7, #0]
 80006fe:	685b      	ldr	r3, [r3, #4]
 8000700:	f403 1380 	and.w	r3, r3, #1048576	; 0x100000
 8000704:	2b00      	cmp	r3, #0
 8000706:	d003      	beq.n	8000710 <HAL_GPIO_Init+0x254>
 8000708:	693a      	ldr	r2, [r7, #16]
 800070a:	68fb      	ldr	r3, [r7, #12]
 800070c:	4313      	orrs	r3, r2
 800070e:	613b      	str	r3, [r7, #16]
 8000710:	4a32      	ldr	r2, [pc, #200]	; (80007dc <HAL_GPIO_Init+0x320>)
 8000712:	693b      	ldr	r3, [r7, #16]
 8000714:	6093      	str	r3, [r2, #8]
 8000716:	4b31      	ldr	r3, [pc, #196]	; (80007dc <HAL_GPIO_Init+0x320>)
 8000718:	68db      	ldr	r3, [r3, #12]
 800071a:	613b      	str	r3, [r7, #16]
 800071c:	68fb      	ldr	r3, [r7, #12]
 800071e:	43db      	mvns	r3, r3
 8000720:	693a      	ldr	r2, [r7, #16]
 8000722:	4013      	ands	r3, r2
 8000724:	613b      	str	r3, [r7, #16]
 8000726:	683b      	ldr	r3, [r7, #0]
 8000728:	685b      	ldr	r3, [r3, #4]
 800072a:	f403 1300 	and.w	r3, r3, #2097152	; 0x200000
 800072e:	2b00      	cmp	r3, #0
 8000730:	d003      	beq.n	800073a <HAL_GPIO_Init+0x27e>
 8000732:	693a      	ldr	r2, [r7, #16]
 8000734:	68fb      	ldr	r3, [r7, #12]
 8000736:	4313      	orrs	r3, r2
 8000738:	613b      	str	r3, [r7, #16]
 800073a:	4a28      	ldr	r2, [pc, #160]	; (80007dc <HAL_GPIO_Init+0x320>)
 800073c:	693b      	ldr	r3, [r7, #16]
 800073e:	60d3      	str	r3, [r2, #12]
 8000740:	4b26      	ldr	r3, [pc, #152]	; (80007dc <HAL_GPIO_Init+0x320>)
 8000742:	685b      	ldr	r3, [r3, #4]
 8000744:	613b      	str	r3, [r7, #16]
 8000746:	68fb      	ldr	r3, [r7, #12]
 8000748:	43db      	mvns	r3, r3
 800074a:	693a      	ldr	r2, [r7, #16]
 800074c:	4013      	ands	r3, r2
 800074e:	613b      	str	r3, [r7, #16]
 8000750:	683b      	ldr	r3, [r7, #0]
 8000752:	685b      	ldr	r3, [r3, #4]
 8000754:	f403 3300 	and.w	r3, r3, #131072	; 0x20000
 8000758:	2b00      	cmp	r3, #0
 800075a:	d003      	beq.n	8000764 <HAL_GPIO_Init+0x2a8>
 800075c:	693a      	ldr	r2, [r7, #16]
 800075e:	68fb      	ldr	r3, [r7, #12]
 8000760:	4313      	orrs	r3, r2
 8000762:	613b      	str	r3, [r7, #16]
 8000764:	4a1d      	ldr	r2, [pc, #116]	; (80007dc <HAL_GPIO_Init+0x320>)
 8000766:	693b      	ldr	r3, [r7, #16]
 8000768:	6053      	str	r3, [r2, #4]
 800076a:	4b1c      	ldr	r3, [pc, #112]	; (80007dc <HAL_GPIO_Init+0x320>)
 800076c:	681b      	ldr	r3, [r3, #0]
 800076e:	613b      	str	r3, [r7, #16]
 8000770:	68fb      	ldr	r3, [r7, #12]
 8000772:	43db      	mvns	r3, r3
 8000774:	693a      	ldr	r2, [r7, #16]
 8000776:	4013      	ands	r3, r2
 8000778:	613b      	str	r3, [r7, #16]
 800077a:	683b      	ldr	r3, [r7, #0]
 800077c:	685b      	ldr	r3, [r3, #4]
 800077e:	f403 3380 	and.w	r3, r3, #65536	; 0x10000
 8000782:	2b00      	cmp	r3, #0
 8000784:	d003      	beq.n	800078e <HAL_GPIO_Init+0x2d2>
 8000786:	693a      	ldr	r2, [r7, #16]
 8000788:	68fb      	ldr	r3, [r7, #12]
 800078a:	4313      	orrs	r3, r2
 800078c:	613b      	str	r3, [r7, #16]
 800078e:	4a13      	ldr	r2, [pc, #76]	; (80007dc <HAL_GPIO_Init+0x320>)
 8000790:	693b      	ldr	r3, [r7, #16]
 8000792:	6013      	str	r3, [r2, #0]
 8000794:	697b      	ldr	r3, [r7, #20]
 8000796:	3301      	adds	r3, #1
 8000798:	617b      	str	r3, [r7, #20]
 800079a:	683b      	ldr	r3, [r7, #0]
 800079c:	681a      	ldr	r2, [r3, #0]
 800079e:	697b      	ldr	r3, [r7, #20]
 80007a0:	fa22 f303 	lsr.w	r3, r2, r3
 80007a4:	2b00      	cmp	r3, #0
 80007a6:	f47f ae91 	bne.w	80004cc <HAL_GPIO_Init+0x10>
 80007aa:	bf00      	nop
 80007ac:	371c      	adds	r7, #28
 80007ae:	46bd      	mov	sp, r7
 80007b0:	f85d 7b04 	ldr.w	r7, [sp], #4
 80007b4:	4770      	bx	lr
 80007b6:	bf00      	nop
 80007b8:	40021000 	andmi	r1, r2, r0
 80007bc:	40010000 	andmi	r0, r1, r0
 80007c0:	48000400 	stmdami	r0, {sl}
 80007c4:	48000800 	stmdami	r0, {fp}
 80007c8:	48000c00 	stmdami	r0, {sl, fp}
 80007cc:	48001000 	stmdami	r0, {ip}
 80007d0:	48001400 	stmdami	r0, {sl, ip}
 80007d4:	48001800 	stmdami	r0, {fp, ip}
 80007d8:	48001c00 	stmdami	r0, {sl, fp, ip}
 80007dc:	40010400 	andmi	r0, r1, r0, lsl #8

080007e0 <HAL_GPIO_ReadPin>:
 80007e0:	b480      	push	{r7}
 80007e2:	b085      	sub	sp, #20
 80007e4:	af00      	add	r7, sp, #0
 80007e6:	6078      	str	r0, [r7, #4]
 80007e8:	460b      	mov	r3, r1
 80007ea:	807b      	strh	r3, [r7, #2]
 80007ec:	687b      	ldr	r3, [r7, #4]
 80007ee:	691a      	ldr	r2, [r3, #16]
 80007f0:	887b      	ldrh	r3, [r7, #2]
 80007f2:	4013      	ands	r3, r2
 80007f4:	2b00      	cmp	r3, #0
 80007f6:	d002      	beq.n	80007fe <HAL_GPIO_ReadPin+0x1e>
 80007f8:	2301      	movs	r3, #1
 80007fa:	73fb      	strb	r3, [r7, #15]
 80007fc:	e001      	b.n	8000802 <HAL_GPIO_ReadPin+0x22>
 80007fe:	2300      	movs	r3, #0
 8000800:	73fb      	strb	r3, [r7, #15]
 8000802:	7bfb      	ldrb	r3, [r7, #15]
 8000804:	4618      	mov	r0, r3
 8000806:	3714      	adds	r7, #20
 8000808:	46bd      	mov	sp, r7
 800080a:	f85d 7b04 	ldr.w	r7, [sp], #4
 800080e:	4770      	bx	lr

08000810 <HAL_GPIO_WritePin>:
 8000810:	b480      	push	{r7}
 8000812:	b083      	sub	sp, #12
 8000814:	af00      	add	r7, sp, #0
 8000816:	6078      	str	r0, [r7, #4]
 8000818:	460b      	mov	r3, r1
 800081a:	807b      	strh	r3, [r7, #2]
 800081c:	4613      	mov	r3, r2
 800081e:	707b      	strb	r3, [r7, #1]
 8000820:	787b      	ldrb	r3, [r7, #1]
 8000822:	2b00      	cmp	r3, #0
 8000824:	d003      	beq.n	800082e <HAL_GPIO_WritePin+0x1e>
 8000826:	887a      	ldrh	r2, [r7, #2]
 8000828:	687b      	ldr	r3, [r7, #4]
 800082a:	619a      	str	r2, [r3, #24]
 800082c:	e002      	b.n	8000834 <HAL_GPIO_WritePin+0x24>
 800082e:	887a      	ldrh	r2, [r7, #2]
 8000830:	687b      	ldr	r3, [r7, #4]
 8000832:	629a      	str	r2, [r3, #40]	; 0x28
 8000834:	bf00      	nop
 8000836:	370c      	adds	r7, #12
 8000838:	46bd      	mov	sp, r7
 800083a:	f85d 7b04 	ldr.w	r7, [sp], #4
 800083e:	4770      	bx	lr

08000840 <HAL_I2C_Init>:
 8000840:	b580      	push	{r7, lr}
 8000842:	b082      	sub	sp, #8
 8000844:	af00      	add	r7, sp, #0
 8000846:	6078      	str	r0, [r7, #4]
 8000848:	687b      	ldr	r3, [r7, #4]
 800084a:	2b00      	cmp	r3, #0
 800084c:	d101      	bne.n	8000852 <HAL_I2C_Init+0x12>
 800084e:	2301      	movs	r3, #1
 8000850:	e0a6      	b.n	80009a0 <HAL_I2C_Init+0x160>
 8000852:	687b      	ldr	r3, [r7, #4]
 8000854:	f893 3041 	ldrb.w	r3, [r3, #65]	; 0x41
 8000858:	b2db      	uxtb	r3, r3
 800085a:	2b00      	cmp	r3, #0
 800085c:	d12c      	bne.n	80008b8 <HAL_I2C_Init+0x78>
 800085e:	687b      	ldr	r3, [r7, #4]
 8000860:	2200      	movs	r2, #0
 8000862:	f883 2040 	strb.w	r2, [r3, #64]	; 0x40
 8000866:	687b      	ldr	r3, [r7, #4]
 8000868:	4a4f      	ldr	r2, [pc, #316]	; (80009a8 <HAL_I2C_Init+0x168>)
 800086a:	655a      	str	r2, [r3, #84]	; 0x54
 800086c:	687b      	ldr	r3, [r7, #4]
 800086e:	4a4f      	ldr	r2, [pc, #316]	; (80009ac <HAL_I2C_Init+0x16c>)
 8000870:	659a      	str	r2, [r3, #88]	; 0x58
 8000872:	687b      	ldr	r3, [r7, #4]
 8000874:	4a4e      	ldr	r2, [pc, #312]	; (80009b0 <HAL_I2C_Init+0x170>)
 8000876:	65da      	str	r2, [r3, #92]	; 0x5c
 8000878:	687b      	ldr	r3, [r7, #4]
 800087a:	4a4e      	ldr	r2, [pc, #312]	; (80009b4 <HAL_I2C_Init+0x174>)
 800087c:	661a      	str	r2, [r3, #96]	; 0x60
 800087e:	687b      	ldr	r3, [r7, #4]
 8000880:	4a4d      	ldr	r2, [pc, #308]	; (80009b8 <HAL_I2C_Init+0x178>)
 8000882:	665a      	str	r2, [r3, #100]	; 0x64
 8000884:	687b      	ldr	r3, [r7, #4]
 8000886:	4a4d      	ldr	r2, [pc, #308]	; (80009bc <HAL_I2C_Init+0x17c>)
 8000888:	669a      	str	r2, [r3, #104]	; 0x68
 800088a:	687b      	ldr	r3, [r7, #4]
 800088c:	4a4c      	ldr	r2, [pc, #304]	; (80009c0 <HAL_I2C_Init+0x180>)
 800088e:	66da      	str	r2, [r3, #108]	; 0x6c
 8000890:	687b      	ldr	r3, [r7, #4]
 8000892:	4a4c      	ldr	r2, [pc, #304]	; (80009c4 <HAL_I2C_Init+0x184>)
 8000894:	671a      	str	r2, [r3, #112]	; 0x70
 8000896:	687b      	ldr	r3, [r7, #4]
 8000898:	4a4b      	ldr	r2, [pc, #300]	; (80009c8 <HAL_I2C_Init+0x188>)
 800089a:	675a      	str	r2, [r3, #116]	; 0x74
 800089c:	687b      	ldr	r3, [r7, #4]
 800089e:	4a4b      	ldr	r2, [pc, #300]	; (80009cc <HAL_I2C_Init+0x18c>)
 80008a0:	679a      	str	r2, [r3, #120]	; 0x78
 80008a2:	687b      	ldr	r3, [r7, #4]
 80008a4:	6fdb      	ldr	r3, [r3, #124]	; 0x7c
 80008a6:	2b00      	cmp	r3, #0
 80008a8:	d102      	bne.n	80008b0 <HAL_I2C_Init+0x70>
 80008aa:	687b      	ldr	r3, [r7, #4]
 80008ac:	4a48      	ldr	r2, [pc, #288]	; (80009d0 <HAL_I2C_Init+0x190>)
 80008ae:	67da      	str	r2, [r3, #124]	; 0x7c
 80008b0:	687b      	ldr	r3, [r7, #4]
 80008b2:	6fdb      	ldr	r3, [r3, #124]	; 0x7c
 80008b4:	6878      	ldr	r0, [r7, #4]
 80008b6:	4798      	blx	r3
 80008b8:	687b      	ldr	r3, [r7, #4]
 80008ba:	2224      	movs	r2, #36	; 0x24
 80008bc:	f883 2041 	strb.w	r2, [r3, #65]	; 0x41
 80008c0:	687b      	ldr	r3, [r7, #4]
 80008c2:	681b      	ldr	r3, [r3, #0]
 80008c4:	687a      	ldr	r2, [r7, #4]
 80008c6:	6812      	ldr	r2, [r2, #0]
 80008c8:	6812      	ldr	r2, [r2, #0]
 80008ca:	f022 0201 	bic.w	r2, r2, #1
 80008ce:	601a      	str	r2, [r3, #0]
 80008d0:	687b      	ldr	r3, [r7, #4]
 80008d2:	681b      	ldr	r3, [r3, #0]
 80008d4:	687a      	ldr	r2, [r7, #4]
 80008d6:	6852      	ldr	r2, [r2, #4]
 80008d8:	f022 6270 	bic.w	r2, r2, #251658240	; 0xf000000
 80008dc:	611a      	str	r2, [r3, #16]
 80008de:	687b      	ldr	r3, [r7, #4]
 80008e0:	681b      	ldr	r3, [r3, #0]
 80008e2:	687a      	ldr	r2, [r7, #4]
 80008e4:	6812      	ldr	r2, [r2, #0]
 80008e6:	6892      	ldr	r2, [r2, #8]
 80008e8:	f422 4200 	bic.w	r2, r2, #32768	; 0x8000
 80008ec:	609a      	str	r2, [r3, #8]
 80008ee:	687b      	ldr	r3, [r7, #4]
 80008f0:	68db      	ldr	r3, [r3, #12]
 80008f2:	2b01      	cmp	r3, #1
 80008f4:	d107      	bne.n	8000906 <HAL_I2C_Init+0xc6>
 80008f6:	687b      	ldr	r3, [r7, #4]
 80008f8:	681b      	ldr	r3, [r3, #0]
 80008fa:	687a      	ldr	r2, [r7, #4]
 80008fc:	6892      	ldr	r2, [r2, #8]
 80008fe:	f442 4200 	orr.w	r2, r2, #32768	; 0x8000
 8000902:	609a      	str	r2, [r3, #8]
 8000904:	e006      	b.n	8000914 <HAL_I2C_Init+0xd4>
 8000906:	687b      	ldr	r3, [r7, #4]
 8000908:	681b      	ldr	r3, [r3, #0]
 800090a:	687a      	ldr	r2, [r7, #4]
 800090c:	6892      	ldr	r2, [r2, #8]
 800090e:	f442 4204 	orr.w	r2, r2, #33792	; 0x8400
 8000912:	609a      	str	r2, [r3, #8]
 8000914:	687b      	ldr	r3, [r7, #4]
 8000916:	68db      	ldr	r3, [r3, #12]
 8000918:	2b02      	cmp	r3, #2
 800091a:	d104      	bne.n	8000926 <HAL_I2C_Init+0xe6>
 800091c:	687b      	ldr	r3, [r7, #4]
 800091e:	681b      	ldr	r3, [r3, #0]
 8000920:	f44f 6200 	mov.w	r2, #2048	; 0x800
 8000924:	605a      	str	r2, [r3, #4]
 8000926:	687b      	ldr	r3, [r7, #4]
 8000928:	681a      	ldr	r2, [r3, #0]
 800092a:	687b      	ldr	r3, [r7, #4]
 800092c:	681b      	ldr	r3, [r3, #0]
 800092e:	685b      	ldr	r3, [r3, #4]
 8000930:	f043 7300 	orr.w	r3, r3, #33554432	; 0x2000000
 8000934:	f443 4300 	orr.w	r3, r3, #32768	; 0x8000
 8000938:	6053      	str	r3, [r2, #4]
 800093a:	687b      	ldr	r3, [r7, #4]
 800093c:	681b      	ldr	r3, [r3, #0]
 800093e:	687a      	ldr	r2, [r7, #4]
 8000940:	6812      	ldr	r2, [r2, #0]
 8000942:	68d2      	ldr	r2, [r2, #12]
 8000944:	f422 4200 	bic.w	r2, r2, #32768	; 0x8000
 8000948:	60da      	str	r2, [r3, #12]
 800094a:	687b      	ldr	r3, [r7, #4]
 800094c:	681b      	ldr	r3, [r3, #0]
 800094e:	687a      	ldr	r2, [r7, #4]
 8000950:	6911      	ldr	r1, [r2, #16]
 8000952:	687a      	ldr	r2, [r7, #4]
 8000954:	6952      	ldr	r2, [r2, #20]
 8000956:	4311      	orrs	r1, r2
 8000958:	687a      	ldr	r2, [r7, #4]
 800095a:	6992      	ldr	r2, [r2, #24]
 800095c:	0212      	lsls	r2, r2, #8
 800095e:	430a      	orrs	r2, r1
 8000960:	60da      	str	r2, [r3, #12]
 8000962:	687b      	ldr	r3, [r7, #4]
 8000964:	681b      	ldr	r3, [r3, #0]
 8000966:	687a      	ldr	r2, [r7, #4]
 8000968:	69d1      	ldr	r1, [r2, #28]
 800096a:	687a      	ldr	r2, [r7, #4]
 800096c:	6a12      	ldr	r2, [r2, #32]
 800096e:	430a      	orrs	r2, r1
 8000970:	601a      	str	r2, [r3, #0]
 8000972:	687b      	ldr	r3, [r7, #4]
 8000974:	681b      	ldr	r3, [r3, #0]
 8000976:	687a      	ldr	r2, [r7, #4]
 8000978:	6812      	ldr	r2, [r2, #0]
 800097a:	6812      	ldr	r2, [r2, #0]
 800097c:	f042 0201 	orr.w	r2, r2, #1
 8000980:	601a      	str	r2, [r3, #0]
 8000982:	687b      	ldr	r3, [r7, #4]
 8000984:	2200      	movs	r2, #0
 8000986:	645a      	str	r2, [r3, #68]	; 0x44
 8000988:	687b      	ldr	r3, [r7, #4]
 800098a:	2220      	movs	r2, #32
 800098c:	f883 2041 	strb.w	r2, [r3, #65]	; 0x41
 8000990:	687b      	ldr	r3, [r7, #4]
 8000992:	2200      	movs	r2, #0
 8000994:	631a      	str	r2, [r3, #48]	; 0x30
 8000996:	687b      	ldr	r3, [r7, #4]
 8000998:	2200      	movs	r2, #0
 800099a:	f883 2042 	strb.w	r2, [r3, #66]	; 0x42
 800099e:	2300      	movs	r3, #0
 80009a0:	4618      	mov	r0, r3
 80009a2:	3708      	adds	r7, #8
 80009a4:	46bd      	mov	sp, r7
 80009a6:	bd80      	pop	{r7, pc}
 80009a8:	08006cbd 	stmdaeq	r0, {r0, r2, r3, r4, r5, r7, sl, fp, sp, lr}
 80009ac:	08006d3d 	stmdaeq	r0, {r0, r2, r3, r4, r5, r8, sl, fp, sp, lr}
 80009b0:	08000c93 	stmdaeq	r0, {r0, r1, r4, r7, sl, fp}
 80009b4:	08000ca7 	stmdaeq	r0, {r0, r1, r2, r5, r7, sl, fp}
 80009b8:	08000cd7 	stmdaeq	r0, {r0, r1, r2, r4, r6, r7, sl, fp}
 80009bc:	08000ceb 	stmdaeq	r0, {r0, r1, r3, r5, r6, r7, sl, fp}
 80009c0:	08000cff 	stmdaeq	r0, {r0, r1, r2, r3, r4, r5, r6, r7, sl, fp}
 80009c4:	08006dcd 	stmdaeq	r0, {r0, r2, r3, r6, r7, r8, sl, fp, sp, lr}
 80009c8:	08000d13 	stmdaeq	r0, {r0, r1, r4, r8, sl, fp}
 80009cc:	08000cbb 	stmdaeq	r0, {r0, r1, r3, r4, r5, r7, sl, fp}
 80009d0:	080009d5 	stmdaeq	r0, {r0, r2, r4, r6, r7, r8, fp}

080009d4 <HAL_I2C_MspInit>:
 80009d4:	b480      	push	{r7}
 80009d6:	b083      	sub	sp, #12
 80009d8:	af00      	add	r7, sp, #0
 80009da:	6078      	str	r0, [r7, #4]
 80009dc:	bf00      	nop
 80009de:	370c      	adds	r7, #12
 80009e0:	46bd      	mov	sp, r7
 80009e2:	f85d 7b04 	ldr.w	r7, [sp], #4
 80009e6:	4770      	bx	lr

080009e8 <HAL_I2C_Master_Transmit_IT>:
 80009e8:	b580      	push	{r7, lr}
 80009ea:	b088      	sub	sp, #32
 80009ec:	af02      	add	r7, sp, #8
 80009ee:	60f8      	str	r0, [r7, #12]
 80009f0:	607a      	str	r2, [r7, #4]
 80009f2:	461a      	mov	r2, r3
 80009f4:	460b      	mov	r3, r1
 80009f6:	817b      	strh	r3, [r7, #10]
 80009f8:	4613      	mov	r3, r2
 80009fa:	813b      	strh	r3, [r7, #8]
 80009fc:	68fb      	ldr	r3, [r7, #12]
 80009fe:	f893 3041 	ldrb.w	r3, [r3, #65]	; 0x41
 8000a02:	b2db      	uxtb	r3, r3
 8000a04:	2b20      	cmp	r3, #32
 8000a06:	d153      	bne.n	8000ab0 <HAL_I2C_Master_Transmit_IT+0xc8>
 8000a08:	68fb      	ldr	r3, [r7, #12]
 8000a0a:	681b      	ldr	r3, [r3, #0]
 8000a0c:	699b      	ldr	r3, [r3, #24]
 8000a0e:	f403 4300 	and.w	r3, r3, #32768	; 0x8000
 8000a12:	f5b3 4f00 	cmp.w	r3, #32768	; 0x8000
 8000a16:	d101      	bne.n	8000a1c <HAL_I2C_Master_Transmit_IT+0x34>
 8000a18:	2302      	movs	r3, #2
 8000a1a:	e04a      	b.n	8000ab2 <HAL_I2C_Master_Transmit_IT+0xca>
 8000a1c:	68fb      	ldr	r3, [r7, #12]
 8000a1e:	f893 3040 	ldrb.w	r3, [r3, #64]	; 0x40
 8000a22:	2b01      	cmp	r3, #1
 8000a24:	d101      	bne.n	8000a2a <HAL_I2C_Master_Transmit_IT+0x42>
 8000a26:	2302      	movs	r3, #2
 8000a28:	e043      	b.n	8000ab2 <HAL_I2C_Master_Transmit_IT+0xca>
 8000a2a:	68fb      	ldr	r3, [r7, #12]
 8000a2c:	2201      	movs	r2, #1
 8000a2e:	f883 2040 	strb.w	r2, [r3, #64]	; 0x40
 8000a32:	68fb      	ldr	r3, [r7, #12]
 8000a34:	2221      	movs	r2, #33	; 0x21
 8000a36:	f883 2041 	strb.w	r2, [r3, #65]	; 0x41
 8000a3a:	68fb      	ldr	r3, [r7, #12]
 8000a3c:	2210      	movs	r2, #16
 8000a3e:	f883 2042 	strb.w	r2, [r3, #66]	; 0x42
 8000a42:	68fb      	ldr	r3, [r7, #12]
 8000a44:	2200      	movs	r2, #0
 8000a46:	645a      	str	r2, [r3, #68]	; 0x44
 8000a48:	68fb      	ldr	r3, [r7, #12]
 8000a4a:	687a      	ldr	r2, [r7, #4]
 8000a4c:	625a      	str	r2, [r3, #36]	; 0x24
 8000a4e:	68fb      	ldr	r3, [r7, #12]
 8000a50:	893a      	ldrh	r2, [r7, #8]
 8000a52:	855a      	strh	r2, [r3, #42]	; 0x2a
 8000a54:	68fb      	ldr	r3, [r7, #12]
 8000a56:	4a19      	ldr	r2, [pc, #100]	; (8000abc <HAL_I2C_Master_Transmit_IT+0xd4>)
 8000a58:	62da      	str	r2, [r3, #44]	; 0x2c
 8000a5a:	68fb      	ldr	r3, [r7, #12]
 8000a5c:	4a18      	ldr	r2, [pc, #96]	; (8000ac0 <HAL_I2C_Master_Transmit_IT+0xd8>)
 8000a5e:	635a      	str	r2, [r3, #52]	; 0x34
 8000a60:	68fb      	ldr	r3, [r7, #12]
 8000a62:	8d5b      	ldrh	r3, [r3, #42]	; 0x2a
 8000a64:	b29b      	uxth	r3, r3
 8000a66:	2bff      	cmp	r3, #255	; 0xff
 8000a68:	d906      	bls.n	8000a78 <HAL_I2C_Master_Transmit_IT+0x90>
 8000a6a:	68fb      	ldr	r3, [r7, #12]
 8000a6c:	22ff      	movs	r2, #255	; 0xff
 8000a6e:	851a      	strh	r2, [r3, #40]	; 0x28
 8000a70:	f04f 7380 	mov.w	r3, #16777216	; 0x1000000
 8000a74:	617b      	str	r3, [r7, #20]
 8000a76:	e007      	b.n	8000a88 <HAL_I2C_Master_Transmit_IT+0xa0>
 8000a78:	68fb      	ldr	r3, [r7, #12]
 8000a7a:	8d5b      	ldrh	r3, [r3, #42]	; 0x2a
 8000a7c:	b29a      	uxth	r2, r3
 8000a7e:	68fb      	ldr	r3, [r7, #12]
 8000a80:	851a      	strh	r2, [r3, #40]	; 0x28
 8000a82:	f04f 7300 	mov.w	r3, #33554432	; 0x2000000
 8000a86:	617b      	str	r3, [r7, #20]
 8000a88:	68fb      	ldr	r3, [r7, #12]
 8000a8a:	8d1b      	ldrh	r3, [r3, #40]	; 0x28
 8000a8c:	b2da      	uxtb	r2, r3
 8000a8e:	8979      	ldrh	r1, [r7, #10]
 8000a90:	4b0c      	ldr	r3, [pc, #48]	; (8000ac4 <HAL_I2C_Master_Transmit_IT+0xdc>)
 8000a92:	9300      	str	r3, [sp, #0]
 8000a94:	697b      	ldr	r3, [r7, #20]
 8000a96:	68f8      	ldr	r0, [r7, #12]
 8000a98:	f001 f9b0 	bl	8001dfc <I2C_TransferConfig>
 8000a9c:	68fb      	ldr	r3, [r7, #12]
 8000a9e:	2200      	movs	r2, #0
 8000aa0:	f883 2040 	strb.w	r2, [r3, #64]	; 0x40
 8000aa4:	2101      	movs	r1, #1
 8000aa6:	68f8      	ldr	r0, [r7, #12]
 8000aa8:	f001 f9d8 	bl	8001e5c <I2C_Enable_IRQ>
 8000aac:	2300      	movs	r3, #0
 8000aae:	e000      	b.n	8000ab2 <HAL_I2C_Master_Transmit_IT+0xca>
 8000ab0:	2302      	movs	r3, #2
 8000ab2:	4618      	mov	r0, r3
 8000ab4:	3718      	adds	r7, #24
 8000ab6:	46bd      	mov	sp, r7
 8000ab8:	bd80      	pop	{r7, pc}
 8000aba:	bf00      	nop
 8000abc:	ffff0000 			; <UNDEFINED> instruction: 0xffff0000
 8000ac0:	08000d3f 	stmdaeq	r0, {r0, r1, r2, r3, r4, r5, r8, sl, fp}
 8000ac4:	80002000 	andhi	r2, r0, r0

08000ac8 <HAL_I2C_Master_Receive_IT>:
 8000ac8:	b580      	push	{r7, lr}
 8000aca:	b088      	sub	sp, #32
 8000acc:	af02      	add	r7, sp, #8
 8000ace:	60f8      	str	r0, [r7, #12]
 8000ad0:	607a      	str	r2, [r7, #4]
 8000ad2:	461a      	mov	r2, r3
 8000ad4:	460b      	mov	r3, r1
 8000ad6:	817b      	strh	r3, [r7, #10]
 8000ad8:	4613      	mov	r3, r2
 8000ada:	813b      	strh	r3, [r7, #8]
 8000adc:	68fb      	ldr	r3, [r7, #12]
 8000ade:	f893 3041 	ldrb.w	r3, [r3, #65]	; 0x41
 8000ae2:	b2db      	uxtb	r3, r3
 8000ae4:	2b20      	cmp	r3, #32
 8000ae6:	d153      	bne.n	8000b90 <HAL_I2C_Master_Receive_IT+0xc8>
 8000ae8:	68fb      	ldr	r3, [r7, #12]
 8000aea:	681b      	ldr	r3, [r3, #0]
 8000aec:	699b      	ldr	r3, [r3, #24]
 8000aee:	f403 4300 	and.w	r3, r3, #32768	; 0x8000
 8000af2:	f5b3 4f00 	cmp.w	r3, #32768	; 0x8000
 8000af6:	d101      	bne.n	8000afc <HAL_I2C_Master_Receive_IT+0x34>
 8000af8:	2302      	movs	r3, #2
 8000afa:	e04a      	b.n	8000b92 <HAL_I2C_Master_Receive_IT+0xca>
 8000afc:	68fb      	ldr	r3, [r7, #12]
 8000afe:	f893 3040 	ldrb.w	r3, [r3, #64]	; 0x40
 8000b02:	2b01      	cmp	r3, #1
 8000b04:	d101      	bne.n	8000b0a <HAL_I2C_Master_Receive_IT+0x42>
 8000b06:	2302      	movs	r3, #2
 8000b08:	e043      	b.n	8000b92 <HAL_I2C_Master_Receive_IT+0xca>
 8000b0a:	68fb      	ldr	r3, [r7, #12]
 8000b0c:	2201      	movs	r2, #1
 8000b0e:	f883 2040 	strb.w	r2, [r3, #64]	; 0x40
 8000b12:	68fb      	ldr	r3, [r7, #12]
 8000b14:	2222      	movs	r2, #34	; 0x22
 8000b16:	f883 2041 	strb.w	r2, [r3, #65]	; 0x41
 8000b1a:	68fb      	ldr	r3, [r7, #12]
 8000b1c:	2210      	movs	r2, #16
 8000b1e:	f883 2042 	strb.w	r2, [r3, #66]	; 0x42
 8000b22:	68fb      	ldr	r3, [r7, #12]
 8000b24:	2200      	movs	r2, #0
 8000b26:	645a      	str	r2, [r3, #68]	; 0x44
 8000b28:	68fb      	ldr	r3, [r7, #12]
 8000b2a:	687a      	ldr	r2, [r7, #4]
 8000b2c:	625a      	str	r2, [r3, #36]	; 0x24
 8000b2e:	68fb      	ldr	r3, [r7, #12]
 8000b30:	893a      	ldrh	r2, [r7, #8]
 8000b32:	855a      	strh	r2, [r3, #42]	; 0x2a
 8000b34:	68fb      	ldr	r3, [r7, #12]
 8000b36:	4a19      	ldr	r2, [pc, #100]	; (8000b9c <HAL_I2C_Master_Receive_IT+0xd4>)
 8000b38:	62da      	str	r2, [r3, #44]	; 0x2c
 8000b3a:	68fb      	ldr	r3, [r7, #12]
 8000b3c:	4a18      	ldr	r2, [pc, #96]	; (8000ba0 <HAL_I2C_Master_Receive_IT+0xd8>)
 8000b3e:	635a      	str	r2, [r3, #52]	; 0x34
 8000b40:	68fb      	ldr	r3, [r7, #12]
 8000b42:	8d5b      	ldrh	r3, [r3, #42]	; 0x2a
 8000b44:	b29b      	uxth	r3, r3
 8000b46:	2bff      	cmp	r3, #255	; 0xff
 8000b48:	d906      	bls.n	8000b58 <HAL_I2C_Master_Receive_IT+0x90>
 8000b4a:	68fb      	ldr	r3, [r7, #12]
 8000b4c:	22ff      	movs	r2, #255	; 0xff
 8000b4e:	851a      	strh	r2, [r3, #40]	; 0x28
 8000b50:	f04f 7380 	mov.w	r3, #16777216	; 0x1000000
 8000b54:	617b      	str	r3, [r7, #20]
 8000b56:	e007      	b.n	8000b68 <HAL_I2C_Master_Receive_IT+0xa0>
 8000b58:	68fb      	ldr	r3, [r7, #12]
 8000b5a:	8d5b      	ldrh	r3, [r3, #42]	; 0x2a
 8000b5c:	b29a      	uxth	r2, r3
 8000b5e:	68fb      	ldr	r3, [r7, #12]
 8000b60:	851a      	strh	r2, [r3, #40]	; 0x28
 8000b62:	f04f 7300 	mov.w	r3, #33554432	; 0x2000000
 8000b66:	617b      	str	r3, [r7, #20]
 8000b68:	68fb      	ldr	r3, [r7, #12]
 8000b6a:	8d1b      	ldrh	r3, [r3, #40]	; 0x28
 8000b6c:	b2da      	uxtb	r2, r3
 8000b6e:	8979      	ldrh	r1, [r7, #10]
 8000b70:	4b0c      	ldr	r3, [pc, #48]	; (8000ba4 <HAL_I2C_Master_Receive_IT+0xdc>)
 8000b72:	9300      	str	r3, [sp, #0]
 8000b74:	697b      	ldr	r3, [r7, #20]
 8000b76:	68f8      	ldr	r0, [r7, #12]
 8000b78:	f001 f940 	bl	8001dfc <I2C_TransferConfig>
 8000b7c:	68fb      	ldr	r3, [r7, #12]
 8000b7e:	2200      	movs	r2, #0
 8000b80:	f883 2040 	strb.w	r2, [r3, #64]	; 0x40
 8000b84:	2102      	movs	r1, #2
 8000b86:	68f8      	ldr	r0, [r7, #12]
 8000b88:	f001 f968 	bl	8001e5c <I2C_Enable_IRQ>
 8000b8c:	2300      	movs	r3, #0
 8000b8e:	e000      	b.n	8000b92 <HAL_I2C_Master_Receive_IT+0xca>
 8000b90:	2302      	movs	r3, #2
 8000b92:	4618      	mov	r0, r3
 8000b94:	3718      	adds	r7, #24
 8000b96:	46bd      	mov	sp, r7
 8000b98:	bd80      	pop	{r7, pc}
 8000b9a:	bf00      	nop
 8000b9c:	ffff0000 			; <UNDEFINED> instruction: 0xffff0000
 8000ba0:	08000d3f 	stmdaeq	r0, {r0, r1, r2, r3, r4, r5, r8, sl, fp}
 8000ba4:	80002400 	andhi	r2, r0, r0, lsl #8

08000ba8 <HAL_I2C_EV_IRQHandler>:
 8000ba8:	b580      	push	{r7, lr}
 8000baa:	b084      	sub	sp, #16
 8000bac:	af00      	add	r7, sp, #0
 8000bae:	6078      	str	r0, [r7, #4]
 8000bb0:	687b      	ldr	r3, [r7, #4]
 8000bb2:	681b      	ldr	r3, [r3, #0]
 8000bb4:	699b      	ldr	r3, [r3, #24]
 8000bb6:	60fb      	str	r3, [r7, #12]
 8000bb8:	687b      	ldr	r3, [r7, #4]
 8000bba:	681b      	ldr	r3, [r3, #0]
 8000bbc:	681b      	ldr	r3, [r3, #0]
 8000bbe:	60bb      	str	r3, [r7, #8]
 8000bc0:	687b      	ldr	r3, [r7, #4]
 8000bc2:	6b5b      	ldr	r3, [r3, #52]	; 0x34
 8000bc4:	2b00      	cmp	r3, #0
 8000bc6:	d005      	beq.n	8000bd4 <HAL_I2C_EV_IRQHandler+0x2c>
 8000bc8:	687b      	ldr	r3, [r7, #4]
 8000bca:	6b5b      	ldr	r3, [r3, #52]	; 0x34
 8000bcc:	68ba      	ldr	r2, [r7, #8]
 8000bce:	68f9      	ldr	r1, [r7, #12]
 8000bd0:	6878      	ldr	r0, [r7, #4]
 8000bd2:	4798      	blx	r3
 8000bd4:	bf00      	nop
 8000bd6:	3710      	adds	r7, #16
 8000bd8:	46bd      	mov	sp, r7
 8000bda:	bd80      	pop	{r7, pc}

08000bdc <HAL_I2C_ER_IRQHandler>:
 8000bdc:	b580      	push	{r7, lr}
 8000bde:	b086      	sub	sp, #24
 8000be0:	af00      	add	r7, sp, #0
 8000be2:	6078      	str	r0, [r7, #4]
 8000be4:	687b      	ldr	r3, [r7, #4]
 8000be6:	681b      	ldr	r3, [r3, #0]
 8000be8:	699b      	ldr	r3, [r3, #24]
 8000bea:	617b      	str	r3, [r7, #20]
 8000bec:	687b      	ldr	r3, [r7, #4]
 8000bee:	681b      	ldr	r3, [r3, #0]
 8000bf0:	681b      	ldr	r3, [r3, #0]
 8000bf2:	613b      	str	r3, [r7, #16]
 8000bf4:	697b      	ldr	r3, [r7, #20]
 8000bf6:	f403 7380 	and.w	r3, r3, #256	; 0x100
 8000bfa:	2b00      	cmp	r3, #0
 8000bfc:	d00f      	beq.n	8000c1e <HAL_I2C_ER_IRQHandler+0x42>
 8000bfe:	693b      	ldr	r3, [r7, #16]
 8000c00:	f003 0380 	and.w	r3, r3, #128	; 0x80
 8000c04:	2b00      	cmp	r3, #0
 8000c06:	d00a      	beq.n	8000c1e <HAL_I2C_ER_IRQHandler+0x42>
 8000c08:	687b      	ldr	r3, [r7, #4]
 8000c0a:	6c5b      	ldr	r3, [r3, #68]	; 0x44
 8000c0c:	f043 0201 	orr.w	r2, r3, #1
 8000c10:	687b      	ldr	r3, [r7, #4]
 8000c12:	645a      	str	r2, [r3, #68]	; 0x44
 8000c14:	687b      	ldr	r3, [r7, #4]
 8000c16:	681b      	ldr	r3, [r3, #0]
 8000c18:	f44f 7280 	mov.w	r2, #256	; 0x100
 8000c1c:	61da      	str	r2, [r3, #28]
 8000c1e:	697b      	ldr	r3, [r7, #20]
 8000c20:	f403 6380 	and.w	r3, r3, #1024	; 0x400
 8000c24:	2b00      	cmp	r3, #0
 8000c26:	d00f      	beq.n	8000c48 <HAL_I2C_ER_IRQHandler+0x6c>
 8000c28:	693b      	ldr	r3, [r7, #16]
 8000c2a:	f003 0380 	and.w	r3, r3, #128	; 0x80
 8000c2e:	2b00      	cmp	r3, #0
 8000c30:	d00a      	beq.n	8000c48 <HAL_I2C_ER_IRQHandler+0x6c>
 8000c32:	687b      	ldr	r3, [r7, #4]
 8000c34:	6c5b      	ldr	r3, [r3, #68]	; 0x44
 8000c36:	f043 0208 	orr.w	r2, r3, #8
 8000c3a:	687b      	ldr	r3, [r7, #4]
 8000c3c:	645a      	str	r2, [r3, #68]	; 0x44
 8000c3e:	687b      	ldr	r3, [r7, #4]
 8000c40:	681b      	ldr	r3, [r3, #0]
 8000c42:	f44f 6280 	mov.w	r2, #1024	; 0x400
 8000c46:	61da      	str	r2, [r3, #28]
 8000c48:	697b      	ldr	r3, [r7, #20]
 8000c4a:	f403 7300 	and.w	r3, r3, #512	; 0x200
 8000c4e:	2b00      	cmp	r3, #0
 8000c50:	d00f      	beq.n	8000c72 <HAL_I2C_ER_IRQHandler+0x96>
 8000c52:	693b      	ldr	r3, [r7, #16]
 8000c54:	f003 0380 	and.w	r3, r3, #128	; 0x80
 8000c58:	2b00      	cmp	r3, #0
 8000c5a:	d00a      	beq.n	8000c72 <HAL_I2C_ER_IRQHandler+0x96>
 8000c5c:	687b      	ldr	r3, [r7, #4]
 8000c5e:	6c5b      	ldr	r3, [r3, #68]	; 0x44
 8000c60:	f043 0202 	orr.w	r2, r3, #2
 8000c64:	687b      	ldr	r3, [r7, #4]
 8000c66:	645a      	str	r2, [r3, #68]	; 0x44
 8000c68:	687b      	ldr	r3, [r7, #4]
 8000c6a:	681b      	ldr	r3, [r3, #0]
 8000c6c:	f44f 7200 	mov.w	r2, #512	; 0x200
 8000c70:	61da      	str	r2, [r3, #28]
 8000c72:	687b      	ldr	r3, [r7, #4]
 8000c74:	6c5b      	ldr	r3, [r3, #68]	; 0x44
 8000c76:	60fb      	str	r3, [r7, #12]
 8000c78:	68fb      	ldr	r3, [r7, #12]
 8000c7a:	f003 030b 	and.w	r3, r3, #11
 8000c7e:	2b00      	cmp	r3, #0
 8000c80:	d003      	beq.n	8000c8a <HAL_I2C_ER_IRQHandler+0xae>
 8000c82:	68f9      	ldr	r1, [r7, #12]
 8000c84:	6878      	ldr	r0, [r7, #4]
 8000c86:	f000 ff7d 	bl	8001b84 <I2C_ITError>
 8000c8a:	bf00      	nop
 8000c8c:	3718      	adds	r7, #24
 8000c8e:	46bd      	mov	sp, r7
 8000c90:	bd80      	pop	{r7, pc}

08000c92 <HAL_I2C_SlaveTxCpltCallback>:
 8000c92:	b480      	push	{r7}
 8000c94:	b083      	sub	sp, #12
 8000c96:	af00      	add	r7, sp, #0
 8000c98:	6078      	str	r0, [r7, #4]
 8000c9a:	bf00      	nop
 8000c9c:	370c      	adds	r7, #12
 8000c9e:	46bd      	mov	sp, r7
 8000ca0:	f85d 7b04 	ldr.w	r7, [sp], #4
 8000ca4:	4770      	bx	lr

08000ca6 <HAL_I2C_SlaveRxCpltCallback>:
 8000ca6:	b480      	push	{r7}
 8000ca8:	b083      	sub	sp, #12
 8000caa:	af00      	add	r7, sp, #0
 8000cac:	6078      	str	r0, [r7, #4]
 8000cae:	bf00      	nop
 8000cb0:	370c      	adds	r7, #12
 8000cb2:	46bd      	mov	sp, r7
 8000cb4:	f85d 7b04 	ldr.w	r7, [sp], #4
 8000cb8:	4770      	bx	lr

08000cba <HAL_I2C_AddrCallback>:
 8000cba:	b480      	push	{r7}
 8000cbc:	b083      	sub	sp, #12
 8000cbe:	af00      	add	r7, sp, #0
 8000cc0:	6078      	str	r0, [r7, #4]
 8000cc2:	460b      	mov	r3, r1
 8000cc4:	70fb      	strb	r3, [r7, #3]
 8000cc6:	4613      	mov	r3, r2
 8000cc8:	803b      	strh	r3, [r7, #0]
 8000cca:	bf00      	nop
 8000ccc:	370c      	adds	r7, #12
 8000cce:	46bd      	mov	sp, r7
 8000cd0:	f85d 7b04 	ldr.w	r7, [sp], #4
 8000cd4:	4770      	bx	lr

08000cd6 <HAL_I2C_ListenCpltCallback>:
 8000cd6:	b480      	push	{r7}
 8000cd8:	b083      	sub	sp, #12
 8000cda:	af00      	add	r7, sp, #0
 8000cdc:	6078      	str	r0, [r7, #4]
 8000cde:	bf00      	nop
 8000ce0:	370c      	adds	r7, #12
 8000ce2:	46bd      	mov	sp, r7
 8000ce4:	f85d 7b04 	ldr.w	r7, [sp], #4
 8000ce8:	4770      	bx	lr

08000cea <HAL_I2C_MemTxCpltCallback>:
 8000cea:	b480      	push	{r7}
 8000cec:	b083      	sub	sp, #12
 8000cee:	af00      	add	r7, sp, #0
 8000cf0:	6078      	str	r0, [r7, #4]
 8000cf2:	bf00      	nop
 8000cf4:	370c      	adds	r7, #12
 8000cf6:	46bd      	mov	sp, r7
 8000cf8:	f85d 7b04 	ldr.w	r7, [sp], #4
 8000cfc:	4770      	bx	lr

08000cfe <HAL_I2C_MemRxCpltCallback>:
 8000cfe:	b480      	push	{r7}
 8000d00:	b083      	sub	sp, #12
 8000d02:	af00      	add	r7, sp, #0
 8000d04:	6078      	str	r0, [r7, #4]
 8000d06:	bf00      	nop
 8000d08:	370c      	adds	r7, #12
 8000d0a:	46bd      	mov	sp, r7
 8000d0c:	f85d 7b04 	ldr.w	r7, [sp], #4
 8000d10:	4770      	bx	lr

08000d12 <HAL_I2C_AbortCpltCallback>:
 8000d12:	b480      	push	{r7}
 8000d14:	b083      	sub	sp, #12
 8000d16:	af00      	add	r7, sp, #0
 8000d18:	6078      	str	r0, [r7, #4]
 8000d1a:	bf00      	nop
 8000d1c:	370c      	adds	r7, #12
 8000d1e:	46bd      	mov	sp, r7
 8000d20:	f85d 7b04 	ldr.w	r7, [sp], #4
 8000d24:	4770      	bx	lr

08000d26 <HAL_I2C_GetError>:
 8000d26:	b480      	push	{r7}
 8000d28:	b083      	sub	sp, #12
 8000d2a:	af00      	add	r7, sp, #0
 8000d2c:	6078      	str	r0, [r7, #4]
 8000d2e:	687b      	ldr	r3, [r7, #4]
 8000d30:	6c5b      	ldr	r3, [r3, #68]	; 0x44
 8000d32:	4618      	mov	r0, r3
 8000d34:	370c      	adds	r7, #12
 8000d36:	46bd      	mov	sp, r7
 8000d38:	f85d 7b04 	ldr.w	r7, [sp], #4
 8000d3c:	4770      	bx	lr

08000d3e <I2C_Master_ISR_IT>:
 8000d3e:	b580      	push	{r7, lr}
 8000d40:	b088      	sub	sp, #32
 8000d42:	af02      	add	r7, sp, #8
 8000d44:	60f8      	str	r0, [r7, #12]
 8000d46:	60b9      	str	r1, [r7, #8]
 8000d48:	607a      	str	r2, [r7, #4]
 8000d4a:	68bb      	ldr	r3, [r7, #8]
 8000d4c:	617b      	str	r3, [r7, #20]
 8000d4e:	68fb      	ldr	r3, [r7, #12]
 8000d50:	f893 3040 	ldrb.w	r3, [r3, #64]	; 0x40
 8000d54:	2b01      	cmp	r3, #1
 8000d56:	d101      	bne.n	8000d5c <I2C_Master_ISR_IT+0x1e>
 8000d58:	2302      	movs	r3, #2
 8000d5a:	e109      	b.n	8000f70 <I2C_Master_ISR_IT+0x232>
 8000d5c:	68fb      	ldr	r3, [r7, #12]
 8000d5e:	2201      	movs	r2, #1
 8000d60:	f883 2040 	strb.w	r2, [r3, #64]	; 0x40
 8000d64:	697b      	ldr	r3, [r7, #20]
 8000d66:	f003 0310 	and.w	r3, r3, #16
 8000d6a:	2b00      	cmp	r3, #0
 8000d6c:	d012      	beq.n	8000d94 <I2C_Master_ISR_IT+0x56>
 8000d6e:	687b      	ldr	r3, [r7, #4]
 8000d70:	f003 0310 	and.w	r3, r3, #16
 8000d74:	2b00      	cmp	r3, #0
 8000d76:	d00d      	beq.n	8000d94 <I2C_Master_ISR_IT+0x56>
 8000d78:	68fb      	ldr	r3, [r7, #12]
 8000d7a:	681b      	ldr	r3, [r3, #0]
 8000d7c:	2210      	movs	r2, #16
 8000d7e:	61da      	str	r2, [r3, #28]
 8000d80:	68fb      	ldr	r3, [r7, #12]
 8000d82:	6c5b      	ldr	r3, [r3, #68]	; 0x44
 8000d84:	f043 0204 	orr.w	r2, r3, #4
 8000d88:	68fb      	ldr	r3, [r7, #12]
 8000d8a:	645a      	str	r2, [r3, #68]	; 0x44
 8000d8c:	68f8      	ldr	r0, [r7, #12]
 8000d8e:	f000 fff2 	bl	8001d76 <I2C_Flush_TXDR>
 8000d92:	e0da      	b.n	8000f4a <I2C_Master_ISR_IT+0x20c>
 8000d94:	697b      	ldr	r3, [r7, #20]
 8000d96:	f003 0304 	and.w	r3, r3, #4
 8000d9a:	2b00      	cmp	r3, #0
 8000d9c:	d022      	beq.n	8000de4 <I2C_Master_ISR_IT+0xa6>
 8000d9e:	687b      	ldr	r3, [r7, #4]
 8000da0:	f003 0304 	and.w	r3, r3, #4
 8000da4:	2b00      	cmp	r3, #0
 8000da6:	d01d      	beq.n	8000de4 <I2C_Master_ISR_IT+0xa6>
 8000da8:	697b      	ldr	r3, [r7, #20]
 8000daa:	f023 0304 	bic.w	r3, r3, #4
 8000dae:	617b      	str	r3, [r7, #20]
 8000db0:	68fb      	ldr	r3, [r7, #12]
 8000db2:	6a5b      	ldr	r3, [r3, #36]	; 0x24
 8000db4:	68fa      	ldr	r2, [r7, #12]
 8000db6:	6812      	ldr	r2, [r2, #0]
 8000db8:	6a52      	ldr	r2, [r2, #36]	; 0x24
 8000dba:	b2d2      	uxtb	r2, r2
 8000dbc:	701a      	strb	r2, [r3, #0]
 8000dbe:	68fb      	ldr	r3, [r7, #12]
 8000dc0:	6a5b      	ldr	r3, [r3, #36]	; 0x24
 8000dc2:	1c5a      	adds	r2, r3, #1
 8000dc4:	68fb      	ldr	r3, [r7, #12]
 8000dc6:	625a      	str	r2, [r3, #36]	; 0x24
 8000dc8:	68fb      	ldr	r3, [r7, #12]
 8000dca:	8d1b      	ldrh	r3, [r3, #40]	; 0x28
 8000dcc:	3b01      	subs	r3, #1
 8000dce:	b29a      	uxth	r2, r3
 8000dd0:	68fb      	ldr	r3, [r7, #12]
 8000dd2:	851a      	strh	r2, [r3, #40]	; 0x28
 8000dd4:	68fb      	ldr	r3, [r7, #12]
 8000dd6:	8d5b      	ldrh	r3, [r3, #42]	; 0x2a
 8000dd8:	b29b      	uxth	r3, r3
 8000dda:	3b01      	subs	r3, #1
 8000ddc:	b29a      	uxth	r2, r3
 8000dde:	68fb      	ldr	r3, [r7, #12]
 8000de0:	855a      	strh	r2, [r3, #42]	; 0x2a
 8000de2:	e0b2      	b.n	8000f4a <I2C_Master_ISR_IT+0x20c>
 8000de4:	697b      	ldr	r3, [r7, #20]
 8000de6:	f003 0302 	and.w	r3, r3, #2
 8000dea:	2b00      	cmp	r3, #0
 8000dec:	d01d      	beq.n	8000e2a <I2C_Master_ISR_IT+0xec>
 8000dee:	687b      	ldr	r3, [r7, #4]
 8000df0:	f003 0302 	and.w	r3, r3, #2
 8000df4:	2b00      	cmp	r3, #0
 8000df6:	d018      	beq.n	8000e2a <I2C_Master_ISR_IT+0xec>
 8000df8:	68fb      	ldr	r3, [r7, #12]
 8000dfa:	681b      	ldr	r3, [r3, #0]
 8000dfc:	68fa      	ldr	r2, [r7, #12]
 8000dfe:	6a52      	ldr	r2, [r2, #36]	; 0x24
 8000e00:	7812      	ldrb	r2, [r2, #0]
 8000e02:	629a      	str	r2, [r3, #40]	; 0x28
 8000e04:	68fb      	ldr	r3, [r7, #12]
 8000e06:	6a5b      	ldr	r3, [r3, #36]	; 0x24
 8000e08:	1c5a      	adds	r2, r3, #1
 8000e0a:	68fb      	ldr	r3, [r7, #12]
 8000e0c:	625a      	str	r2, [r3, #36]	; 0x24
 8000e0e:	68fb      	ldr	r3, [r7, #12]
 8000e10:	8d1b      	ldrh	r3, [r3, #40]	; 0x28
 8000e12:	3b01      	subs	r3, #1
 8000e14:	b29a      	uxth	r2, r3
 8000e16:	68fb      	ldr	r3, [r7, #12]
 8000e18:	851a      	strh	r2, [r3, #40]	; 0x28
 8000e1a:	68fb      	ldr	r3, [r7, #12]
 8000e1c:	8d5b      	ldrh	r3, [r3, #42]	; 0x2a
 8000e1e:	b29b      	uxth	r3, r3
 8000e20:	3b01      	subs	r3, #1
 8000e22:	b29a      	uxth	r2, r3
 8000e24:	68fb      	ldr	r3, [r7, #12]
 8000e26:	855a      	strh	r2, [r3, #42]	; 0x2a
 8000e28:	e08f      	b.n	8000f4a <I2C_Master_ISR_IT+0x20c>
 8000e2a:	697b      	ldr	r3, [r7, #20]
 8000e2c:	f003 0380 	and.w	r3, r3, #128	; 0x80
 8000e30:	2b00      	cmp	r3, #0
 8000e32:	d05d      	beq.n	8000ef0 <I2C_Master_ISR_IT+0x1b2>
 8000e34:	687b      	ldr	r3, [r7, #4]
 8000e36:	f003 0340 	and.w	r3, r3, #64	; 0x40
 8000e3a:	2b00      	cmp	r3, #0
 8000e3c:	d058      	beq.n	8000ef0 <I2C_Master_ISR_IT+0x1b2>
 8000e3e:	68fb      	ldr	r3, [r7, #12]
 8000e40:	8d5b      	ldrh	r3, [r3, #42]	; 0x2a
 8000e42:	b29b      	uxth	r3, r3
 8000e44:	2b00      	cmp	r3, #0
 8000e46:	d041      	beq.n	8000ecc <I2C_Master_ISR_IT+0x18e>
 8000e48:	68fb      	ldr	r3, [r7, #12]
 8000e4a:	8d1b      	ldrh	r3, [r3, #40]	; 0x28
 8000e4c:	2b00      	cmp	r3, #0
 8000e4e:	d13d      	bne.n	8000ecc <I2C_Master_ISR_IT+0x18e>
 8000e50:	68fb      	ldr	r3, [r7, #12]
 8000e52:	681b      	ldr	r3, [r3, #0]
 8000e54:	685b      	ldr	r3, [r3, #4]
 8000e56:	b29b      	uxth	r3, r3
 8000e58:	f3c3 0309 	ubfx	r3, r3, #0, #10
 8000e5c:	827b      	strh	r3, [r7, #18]
 8000e5e:	68fb      	ldr	r3, [r7, #12]
 8000e60:	8d5b      	ldrh	r3, [r3, #42]	; 0x2a
 8000e62:	b29b      	uxth	r3, r3
 8000e64:	2bff      	cmp	r3, #255	; 0xff
 8000e66:	d90e      	bls.n	8000e86 <I2C_Master_ISR_IT+0x148>
 8000e68:	68fb      	ldr	r3, [r7, #12]
 8000e6a:	22ff      	movs	r2, #255	; 0xff
 8000e6c:	851a      	strh	r2, [r3, #40]	; 0x28
 8000e6e:	68fb      	ldr	r3, [r7, #12]
 8000e70:	8d1b      	ldrh	r3, [r3, #40]	; 0x28
 8000e72:	b2da      	uxtb	r2, r3
 8000e74:	8a79      	ldrh	r1, [r7, #18]
 8000e76:	2300      	movs	r3, #0
 8000e78:	9300      	str	r3, [sp, #0]
 8000e7a:	f04f 7380 	mov.w	r3, #16777216	; 0x1000000
 8000e7e:	68f8      	ldr	r0, [r7, #12]
 8000e80:	f000 ffbc 	bl	8001dfc <I2C_TransferConfig>
 8000e84:	e033      	b.n	8000eee <I2C_Master_ISR_IT+0x1b0>
 8000e86:	68fb      	ldr	r3, [r7, #12]
 8000e88:	8d5b      	ldrh	r3, [r3, #42]	; 0x2a
 8000e8a:	b29a      	uxth	r2, r3
 8000e8c:	68fb      	ldr	r3, [r7, #12]
 8000e8e:	851a      	strh	r2, [r3, #40]	; 0x28
 8000e90:	68fb      	ldr	r3, [r7, #12]
 8000e92:	6adb      	ldr	r3, [r3, #44]	; 0x2c
 8000e94:	f513 3f80 	cmn.w	r3, #65536	; 0x10000
 8000e98:	d00c      	beq.n	8000eb4 <I2C_Master_ISR_IT+0x176>
 8000e9a:	68fb      	ldr	r3, [r7, #12]
 8000e9c:	8d1b      	ldrh	r3, [r3, #40]	; 0x28
 8000e9e:	b2da      	uxtb	r2, r3
 8000ea0:	68fb      	ldr	r3, [r7, #12]
 8000ea2:	6ad8      	ldr	r0, [r3, #44]	; 0x2c
 8000ea4:	8a79      	ldrh	r1, [r7, #18]
 8000ea6:	2300      	movs	r3, #0
 8000ea8:	9300      	str	r3, [sp, #0]
 8000eaa:	4603      	mov	r3, r0
 8000eac:	68f8      	ldr	r0, [r7, #12]
 8000eae:	f000 ffa5 	bl	8001dfc <I2C_TransferConfig>
 8000eb2:	e01c      	b.n	8000eee <I2C_Master_ISR_IT+0x1b0>
 8000eb4:	68fb      	ldr	r3, [r7, #12]
 8000eb6:	8d1b      	ldrh	r3, [r3, #40]	; 0x28
 8000eb8:	b2da      	uxtb	r2, r3
 8000eba:	8a79      	ldrh	r1, [r7, #18]
 8000ebc:	2300      	movs	r3, #0
 8000ebe:	9300      	str	r3, [sp, #0]
 8000ec0:	f04f 7300 	mov.w	r3, #33554432	; 0x2000000
 8000ec4:	68f8      	ldr	r0, [r7, #12]
 8000ec6:	f000 ff99 	bl	8001dfc <I2C_TransferConfig>
 8000eca:	e010      	b.n	8000eee <I2C_Master_ISR_IT+0x1b0>
 8000ecc:	68fb      	ldr	r3, [r7, #12]
 8000ece:	681b      	ldr	r3, [r3, #0]
 8000ed0:	685b      	ldr	r3, [r3, #4]
 8000ed2:	f003 7300 	and.w	r3, r3, #33554432	; 0x2000000
 8000ed6:	f1b3 7f00 	cmp.w	r3, #33554432	; 0x2000000
 8000eda:	d003      	beq.n	8000ee4 <I2C_Master_ISR_IT+0x1a6>
 8000edc:	68f8      	ldr	r0, [r7, #12]
 8000ede:	f000 fb88 	bl	80015f2 <I2C_ITMasterSeqCplt>
 8000ee2:	e032      	b.n	8000f4a <I2C_Master_ISR_IT+0x20c>
 8000ee4:	2140      	movs	r1, #64	; 0x40
 8000ee6:	68f8      	ldr	r0, [r7, #12]
 8000ee8:	f000 fe4c 	bl	8001b84 <I2C_ITError>
 8000eec:	e02d      	b.n	8000f4a <I2C_Master_ISR_IT+0x20c>
 8000eee:	e02c      	b.n	8000f4a <I2C_Master_ISR_IT+0x20c>
 8000ef0:	697b      	ldr	r3, [r7, #20]
 8000ef2:	f003 0340 	and.w	r3, r3, #64	; 0x40
 8000ef6:	2b00      	cmp	r3, #0
 8000ef8:	d027      	beq.n	8000f4a <I2C_Master_ISR_IT+0x20c>
 8000efa:	687b      	ldr	r3, [r7, #4]
 8000efc:	f003 0340 	and.w	r3, r3, #64	; 0x40
 8000f00:	2b00      	cmp	r3, #0
 8000f02:	d022      	beq.n	8000f4a <I2C_Master_ISR_IT+0x20c>
 8000f04:	68fb      	ldr	r3, [r7, #12]
 8000f06:	8d5b      	ldrh	r3, [r3, #42]	; 0x2a
 8000f08:	b29b      	uxth	r3, r3
 8000f0a:	2b00      	cmp	r3, #0
 8000f0c:	d119      	bne.n	8000f42 <I2C_Master_ISR_IT+0x204>
 8000f0e:	68fb      	ldr	r3, [r7, #12]
 8000f10:	681b      	ldr	r3, [r3, #0]
 8000f12:	685b      	ldr	r3, [r3, #4]
 8000f14:	f003 7300 	and.w	r3, r3, #33554432	; 0x2000000
 8000f18:	f1b3 7f00 	cmp.w	r3, #33554432	; 0x2000000
 8000f1c:	d015      	beq.n	8000f4a <I2C_Master_ISR_IT+0x20c>
 8000f1e:	68fb      	ldr	r3, [r7, #12]
 8000f20:	6adb      	ldr	r3, [r3, #44]	; 0x2c
 8000f22:	f513 3f80 	cmn.w	r3, #65536	; 0x10000
 8000f26:	d108      	bne.n	8000f3a <I2C_Master_ISR_IT+0x1fc>
 8000f28:	68fb      	ldr	r3, [r7, #12]
 8000f2a:	681b      	ldr	r3, [r3, #0]
 8000f2c:	68fa      	ldr	r2, [r7, #12]
 8000f2e:	6812      	ldr	r2, [r2, #0]
 8000f30:	6852      	ldr	r2, [r2, #4]
 8000f32:	f442 4280 	orr.w	r2, r2, #16384	; 0x4000
 8000f36:	605a      	str	r2, [r3, #4]
 8000f38:	e007      	b.n	8000f4a <I2C_Master_ISR_IT+0x20c>
 8000f3a:	68f8      	ldr	r0, [r7, #12]
 8000f3c:	f000 fb59 	bl	80015f2 <I2C_ITMasterSeqCplt>
 8000f40:	e003      	b.n	8000f4a <I2C_Master_ISR_IT+0x20c>
 8000f42:	2140      	movs	r1, #64	; 0x40
 8000f44:	68f8      	ldr	r0, [r7, #12]
 8000f46:	f000 fe1d 	bl	8001b84 <I2C_ITError>
 8000f4a:	697b      	ldr	r3, [r7, #20]
 8000f4c:	f003 0320 	and.w	r3, r3, #32
 8000f50:	2b00      	cmp	r3, #0
 8000f52:	d008      	beq.n	8000f66 <I2C_Master_ISR_IT+0x228>
 8000f54:	687b      	ldr	r3, [r7, #4]
 8000f56:	f003 0320 	and.w	r3, r3, #32
 8000f5a:	2b00      	cmp	r3, #0
 8000f5c:	d003      	beq.n	8000f66 <I2C_Master_ISR_IT+0x228>
 8000f5e:	6979      	ldr	r1, [r7, #20]
 8000f60:	68f8      	ldr	r0, [r7, #12]
 8000f62:	f000 fbe3 	bl	800172c <I2C_ITMasterCplt>
 8000f66:	68fb      	ldr	r3, [r7, #12]
 8000f68:	2200      	movs	r2, #0
 8000f6a:	f883 2040 	strb.w	r2, [r3, #64]	; 0x40
 8000f6e:	2300      	movs	r3, #0
 8000f70:	4618      	mov	r0, r3
 8000f72:	3718      	adds	r7, #24
 8000f74:	46bd      	mov	sp, r7
 8000f76:	bd80      	pop	{r7, pc}

08000f78 <I2C_Slave_ISR_IT>:
 8000f78:	b580      	push	{r7, lr}
 8000f7a:	b086      	sub	sp, #24
 8000f7c:	af00      	add	r7, sp, #0
 8000f7e:	60f8      	str	r0, [r7, #12]
 8000f80:	60b9      	str	r1, [r7, #8]
 8000f82:	607a      	str	r2, [r7, #4]
 8000f84:	68fb      	ldr	r3, [r7, #12]
 8000f86:	6adb      	ldr	r3, [r3, #44]	; 0x2c
 8000f88:	617b      	str	r3, [r7, #20]
 8000f8a:	68bb      	ldr	r3, [r7, #8]
 8000f8c:	613b      	str	r3, [r7, #16]
 8000f8e:	68fb      	ldr	r3, [r7, #12]
 8000f90:	f893 3040 	ldrb.w	r3, [r3, #64]	; 0x40
 8000f94:	2b01      	cmp	r3, #1
 8000f96:	d101      	bne.n	8000f9c <I2C_Slave_ISR_IT+0x24>
 8000f98:	2302      	movs	r3, #2
 8000f9a:	e0e1      	b.n	8001160 <I2C_Slave_ISR_IT+0x1e8>
 8000f9c:	68fb      	ldr	r3, [r7, #12]
 8000f9e:	2201      	movs	r2, #1
 8000fa0:	f883 2040 	strb.w	r2, [r3, #64]	; 0x40
 8000fa4:	693b      	ldr	r3, [r7, #16]
 8000fa6:	f003 0320 	and.w	r3, r3, #32
 8000faa:	2b00      	cmp	r3, #0
 8000fac:	d008      	beq.n	8000fc0 <I2C_Slave_ISR_IT+0x48>
 8000fae:	687b      	ldr	r3, [r7, #4]
 8000fb0:	f003 0320 	and.w	r3, r3, #32
 8000fb4:	2b00      	cmp	r3, #0
 8000fb6:	d003      	beq.n	8000fc0 <I2C_Slave_ISR_IT+0x48>
 8000fb8:	6939      	ldr	r1, [r7, #16]
 8000fba:	68f8      	ldr	r0, [r7, #12]
 8000fbc:	f000 fc82 	bl	80018c4 <I2C_ITSlaveCplt>
 8000fc0:	693b      	ldr	r3, [r7, #16]
 8000fc2:	f003 0310 	and.w	r3, r3, #16
 8000fc6:	2b00      	cmp	r3, #0
 8000fc8:	d04b      	beq.n	8001062 <I2C_Slave_ISR_IT+0xea>
 8000fca:	687b      	ldr	r3, [r7, #4]
 8000fcc:	f003 0310 	and.w	r3, r3, #16
 8000fd0:	2b00      	cmp	r3, #0
 8000fd2:	d046      	beq.n	8001062 <I2C_Slave_ISR_IT+0xea>
 8000fd4:	68fb      	ldr	r3, [r7, #12]
 8000fd6:	8d5b      	ldrh	r3, [r3, #42]	; 0x2a
 8000fd8:	b29b      	uxth	r3, r3
 8000fda:	2b00      	cmp	r3, #0
 8000fdc:	d128      	bne.n	8001030 <I2C_Slave_ISR_IT+0xb8>
 8000fde:	68fb      	ldr	r3, [r7, #12]
 8000fe0:	f893 3041 	ldrb.w	r3, [r3, #65]	; 0x41
 8000fe4:	b2db      	uxtb	r3, r3
 8000fe6:	2b28      	cmp	r3, #40	; 0x28
 8000fe8:	d108      	bne.n	8000ffc <I2C_Slave_ISR_IT+0x84>
 8000fea:	697b      	ldr	r3, [r7, #20]
 8000fec:	f1b3 7f00 	cmp.w	r3, #33554432	; 0x2000000
 8000ff0:	d104      	bne.n	8000ffc <I2C_Slave_ISR_IT+0x84>
 8000ff2:	6939      	ldr	r1, [r7, #16]
 8000ff4:	68f8      	ldr	r0, [r7, #12]
 8000ff6:	f000 fd6f 	bl	8001ad8 <I2C_ITListenCplt>
 8000ffa:	e031      	b.n	8001060 <I2C_Slave_ISR_IT+0xe8>
 8000ffc:	68fb      	ldr	r3, [r7, #12]
 8000ffe:	f893 3041 	ldrb.w	r3, [r3, #65]	; 0x41
 8001002:	b2db      	uxtb	r3, r3
 8001004:	2b29      	cmp	r3, #41	; 0x29
 8001006:	d10e      	bne.n	8001026 <I2C_Slave_ISR_IT+0xae>
 8001008:	697b      	ldr	r3, [r7, #20]
 800100a:	f513 3f80 	cmn.w	r3, #65536	; 0x10000
 800100e:	d00a      	beq.n	8001026 <I2C_Slave_ISR_IT+0xae>
 8001010:	68fb      	ldr	r3, [r7, #12]
 8001012:	681b      	ldr	r3, [r3, #0]
 8001014:	2210      	movs	r2, #16
 8001016:	61da      	str	r2, [r3, #28]
 8001018:	68f8      	ldr	r0, [r7, #12]
 800101a:	f000 feac 	bl	8001d76 <I2C_Flush_TXDR>
 800101e:	68f8      	ldr	r0, [r7, #12]
 8001020:	f000 fb26 	bl	8001670 <I2C_ITSlaveSeqCplt>
 8001024:	e01c      	b.n	8001060 <I2C_Slave_ISR_IT+0xe8>
 8001026:	68fb      	ldr	r3, [r7, #12]
 8001028:	681b      	ldr	r3, [r3, #0]
 800102a:	2210      	movs	r2, #16
 800102c:	61da      	str	r2, [r3, #28]
 800102e:	e08f      	b.n	8001150 <I2C_Slave_ISR_IT+0x1d8>
 8001030:	68fb      	ldr	r3, [r7, #12]
 8001032:	681b      	ldr	r3, [r3, #0]
 8001034:	2210      	movs	r2, #16
 8001036:	61da      	str	r2, [r3, #28]
 8001038:	68fb      	ldr	r3, [r7, #12]
 800103a:	6c5b      	ldr	r3, [r3, #68]	; 0x44
 800103c:	f043 0204 	orr.w	r2, r3, #4
 8001040:	68fb      	ldr	r3, [r7, #12]
 8001042:	645a      	str	r2, [r3, #68]	; 0x44
 8001044:	697b      	ldr	r3, [r7, #20]
 8001046:	2b00      	cmp	r3, #0
 8001048:	d003      	beq.n	8001052 <I2C_Slave_ISR_IT+0xda>
 800104a:	697b      	ldr	r3, [r7, #20]
 800104c:	f1b3 7f80 	cmp.w	r3, #16777216	; 0x1000000
 8001050:	d17e      	bne.n	8001150 <I2C_Slave_ISR_IT+0x1d8>
 8001052:	68fb      	ldr	r3, [r7, #12]
 8001054:	6c5b      	ldr	r3, [r3, #68]	; 0x44
 8001056:	4619      	mov	r1, r3
 8001058:	68f8      	ldr	r0, [r7, #12]
 800105a:	f000 fd93 	bl	8001b84 <I2C_ITError>
 800105e:	e077      	b.n	8001150 <I2C_Slave_ISR_IT+0x1d8>
 8001060:	e076      	b.n	8001150 <I2C_Slave_ISR_IT+0x1d8>
 8001062:	693b      	ldr	r3, [r7, #16]
 8001064:	f003 0304 	and.w	r3, r3, #4
 8001068:	2b00      	cmp	r3, #0
 800106a:	d02f      	beq.n	80010cc <I2C_Slave_ISR_IT+0x154>
 800106c:	687b      	ldr	r3, [r7, #4]
 800106e:	f003 0304 	and.w	r3, r3, #4
 8001072:	2b00      	cmp	r3, #0
 8001074:	d02a      	beq.n	80010cc <I2C_Slave_ISR_IT+0x154>
 8001076:	68fb      	ldr	r3, [r7, #12]
 8001078:	8d5b      	ldrh	r3, [r3, #42]	; 0x2a
 800107a:	b29b      	uxth	r3, r3
 800107c:	2b00      	cmp	r3, #0
 800107e:	d018      	beq.n	80010b2 <I2C_Slave_ISR_IT+0x13a>
 8001080:	68fb      	ldr	r3, [r7, #12]
 8001082:	6a5b      	ldr	r3, [r3, #36]	; 0x24
 8001084:	68fa      	ldr	r2, [r7, #12]
 8001086:	6812      	ldr	r2, [r2, #0]
 8001088:	6a52      	ldr	r2, [r2, #36]	; 0x24
 800108a:	b2d2      	uxtb	r2, r2
 800108c:	701a      	strb	r2, [r3, #0]
 800108e:	68fb      	ldr	r3, [r7, #12]
 8001090:	6a5b      	ldr	r3, [r3, #36]	; 0x24
 8001092:	1c5a      	adds	r2, r3, #1
 8001094:	68fb      	ldr	r3, [r7, #12]
 8001096:	625a      	str	r2, [r3, #36]	; 0x24
 8001098:	68fb      	ldr	r3, [r7, #12]
 800109a:	8d1b      	ldrh	r3, [r3, #40]	; 0x28
 800109c:	3b01      	subs	r3, #1
 800109e:	b29a      	uxth	r2, r3
 80010a0:	68fb      	ldr	r3, [r7, #12]
 80010a2:	851a      	strh	r2, [r3, #40]	; 0x28
 80010a4:	68fb      	ldr	r3, [r7, #12]
 80010a6:	8d5b      	ldrh	r3, [r3, #42]	; 0x2a
 80010a8:	b29b      	uxth	r3, r3
 80010aa:	3b01      	subs	r3, #1
 80010ac:	b29a      	uxth	r2, r3
 80010ae:	68fb      	ldr	r3, [r7, #12]
 80010b0:	855a      	strh	r2, [r3, #42]	; 0x2a
 80010b2:	68fb      	ldr	r3, [r7, #12]
 80010b4:	8d5b      	ldrh	r3, [r3, #42]	; 0x2a
 80010b6:	b29b      	uxth	r3, r3
 80010b8:	2b00      	cmp	r3, #0
 80010ba:	d14b      	bne.n	8001154 <I2C_Slave_ISR_IT+0x1dc>
 80010bc:	697b      	ldr	r3, [r7, #20]
 80010be:	f513 3f80 	cmn.w	r3, #65536	; 0x10000
 80010c2:	d047      	beq.n	8001154 <I2C_Slave_ISR_IT+0x1dc>
 80010c4:	68f8      	ldr	r0, [r7, #12]
 80010c6:	f000 fad3 	bl	8001670 <I2C_ITSlaveSeqCplt>
 80010ca:	e043      	b.n	8001154 <I2C_Slave_ISR_IT+0x1dc>
 80010cc:	693b      	ldr	r3, [r7, #16]
 80010ce:	f003 0308 	and.w	r3, r3, #8
 80010d2:	2b00      	cmp	r3, #0
 80010d4:	d009      	beq.n	80010ea <I2C_Slave_ISR_IT+0x172>
 80010d6:	687b      	ldr	r3, [r7, #4]
 80010d8:	f003 0308 	and.w	r3, r3, #8
 80010dc:	2b00      	cmp	r3, #0
 80010de:	d004      	beq.n	80010ea <I2C_Slave_ISR_IT+0x172>
 80010e0:	6939      	ldr	r1, [r7, #16]
 80010e2:	68f8      	ldr	r0, [r7, #12]
 80010e4:	f000 fa01 	bl	80014ea <I2C_ITAddrCplt>
 80010e8:	e035      	b.n	8001156 <I2C_Slave_ISR_IT+0x1de>
 80010ea:	693b      	ldr	r3, [r7, #16]
 80010ec:	f003 0302 	and.w	r3, r3, #2
 80010f0:	2b00      	cmp	r3, #0
 80010f2:	d030      	beq.n	8001156 <I2C_Slave_ISR_IT+0x1de>
 80010f4:	687b      	ldr	r3, [r7, #4]
 80010f6:	f003 0302 	and.w	r3, r3, #2
 80010fa:	2b00      	cmp	r3, #0
 80010fc:	d02b      	beq.n	8001156 <I2C_Slave_ISR_IT+0x1de>
 80010fe:	68fb      	ldr	r3, [r7, #12]
 8001100:	8d5b      	ldrh	r3, [r3, #42]	; 0x2a
 8001102:	b29b      	uxth	r3, r3
 8001104:	2b00      	cmp	r3, #0
 8001106:	d018      	beq.n	800113a <I2C_Slave_ISR_IT+0x1c2>
 8001108:	68fb      	ldr	r3, [r7, #12]
 800110a:	681b      	ldr	r3, [r3, #0]
 800110c:	68fa      	ldr	r2, [r7, #12]
 800110e:	6a52      	ldr	r2, [r2, #36]	; 0x24
 8001110:	7812      	ldrb	r2, [r2, #0]
 8001112:	629a      	str	r2, [r3, #40]	; 0x28
 8001114:	68fb      	ldr	r3, [r7, #12]
 8001116:	6a5b      	ldr	r3, [r3, #36]	; 0x24
 8001118:	1c5a      	adds	r2, r3, #1
 800111a:	68fb      	ldr	r3, [r7, #12]
 800111c:	625a      	str	r2, [r3, #36]	; 0x24
 800111e:	68fb      	ldr	r3, [r7, #12]
 8001120:	8d5b      	ldrh	r3, [r3, #42]	; 0x2a
 8001122:	b29b      	uxth	r3, r3
 8001124:	3b01      	subs	r3, #1
 8001126:	b29a      	uxth	r2, r3
 8001128:	68fb      	ldr	r3, [r7, #12]
 800112a:	855a      	strh	r2, [r3, #42]	; 0x2a
 800112c:	68fb      	ldr	r3, [r7, #12]
 800112e:	8d1b      	ldrh	r3, [r3, #40]	; 0x28
 8001130:	3b01      	subs	r3, #1
 8001132:	b29a      	uxth	r2, r3
 8001134:	68fb      	ldr	r3, [r7, #12]
 8001136:	851a      	strh	r2, [r3, #40]	; 0x28
 8001138:	e00d      	b.n	8001156 <I2C_Slave_ISR_IT+0x1de>
 800113a:	697b      	ldr	r3, [r7, #20]
 800113c:	f1b3 7f80 	cmp.w	r3, #16777216	; 0x1000000
 8001140:	d002      	beq.n	8001148 <I2C_Slave_ISR_IT+0x1d0>
 8001142:	697b      	ldr	r3, [r7, #20]
 8001144:	2b00      	cmp	r3, #0
 8001146:	d106      	bne.n	8001156 <I2C_Slave_ISR_IT+0x1de>
 8001148:	68f8      	ldr	r0, [r7, #12]
 800114a:	f000 fa91 	bl	8001670 <I2C_ITSlaveSeqCplt>
 800114e:	e002      	b.n	8001156 <I2C_Slave_ISR_IT+0x1de>
 8001150:	bf00      	nop
 8001152:	e000      	b.n	8001156 <I2C_Slave_ISR_IT+0x1de>
 8001154:	bf00      	nop
 8001156:	68fb      	ldr	r3, [r7, #12]
 8001158:	2200      	movs	r2, #0
 800115a:	f883 2040 	strb.w	r2, [r3, #64]	; 0x40
 800115e:	2300      	movs	r3, #0
 8001160:	4618      	mov	r0, r3
 8001162:	3718      	adds	r7, #24
 8001164:	46bd      	mov	sp, r7
 8001166:	bd80      	pop	{r7, pc}

08001168 <I2C_Master_ISR_DMA>:
 8001168:	b580      	push	{r7, lr}
 800116a:	b088      	sub	sp, #32
 800116c:	af02      	add	r7, sp, #8
 800116e:	60f8      	str	r0, [r7, #12]
 8001170:	60b9      	str	r1, [r7, #8]
 8001172:	607a      	str	r2, [r7, #4]
 8001174:	68fb      	ldr	r3, [r7, #12]
 8001176:	f893 3040 	ldrb.w	r3, [r3, #64]	; 0x40
 800117a:	2b01      	cmp	r3, #1
 800117c:	d101      	bne.n	8001182 <I2C_Master_ISR_DMA+0x1a>
 800117e:	2302      	movs	r3, #2
 8001180:	e0d9      	b.n	8001336 <I2C_Master_ISR_DMA+0x1ce>
 8001182:	68fb      	ldr	r3, [r7, #12]
 8001184:	2201      	movs	r2, #1
 8001186:	f883 2040 	strb.w	r2, [r3, #64]	; 0x40
 800118a:	68bb      	ldr	r3, [r7, #8]
 800118c:	f003 0310 	and.w	r3, r3, #16
 8001190:	2b00      	cmp	r3, #0
 8001192:	d016      	beq.n	80011c2 <I2C_Master_ISR_DMA+0x5a>
 8001194:	687b      	ldr	r3, [r7, #4]
 8001196:	f003 0310 	and.w	r3, r3, #16
 800119a:	2b00      	cmp	r3, #0
 800119c:	d011      	beq.n	80011c2 <I2C_Master_ISR_DMA+0x5a>
 800119e:	68fb      	ldr	r3, [r7, #12]
 80011a0:	681b      	ldr	r3, [r3, #0]
 80011a2:	2210      	movs	r2, #16
 80011a4:	61da      	str	r2, [r3, #28]
 80011a6:	68fb      	ldr	r3, [r7, #12]
 80011a8:	6c5b      	ldr	r3, [r3, #68]	; 0x44
 80011aa:	f043 0204 	orr.w	r2, r3, #4
 80011ae:	68fb      	ldr	r3, [r7, #12]
 80011b0:	645a      	str	r2, [r3, #68]	; 0x44
 80011b2:	2120      	movs	r1, #32
 80011b4:	68f8      	ldr	r0, [r7, #12]
 80011b6:	f000 fe51 	bl	8001e5c <I2C_Enable_IRQ>
 80011ba:	68f8      	ldr	r0, [r7, #12]
 80011bc:	f000 fddb 	bl	8001d76 <I2C_Flush_TXDR>
 80011c0:	e0b4      	b.n	800132c <I2C_Master_ISR_DMA+0x1c4>
 80011c2:	68bb      	ldr	r3, [r7, #8]
 80011c4:	f003 0380 	and.w	r3, r3, #128	; 0x80
 80011c8:	2b00      	cmp	r3, #0
 80011ca:	d071      	beq.n	80012b0 <I2C_Master_ISR_DMA+0x148>
 80011cc:	687b      	ldr	r3, [r7, #4]
 80011ce:	f003 0340 	and.w	r3, r3, #64	; 0x40
 80011d2:	2b00      	cmp	r3, #0
 80011d4:	d06c      	beq.n	80012b0 <I2C_Master_ISR_DMA+0x148>
 80011d6:	68fb      	ldr	r3, [r7, #12]
 80011d8:	681b      	ldr	r3, [r3, #0]
 80011da:	68fa      	ldr	r2, [r7, #12]
 80011dc:	6812      	ldr	r2, [r2, #0]
 80011de:	6812      	ldr	r2, [r2, #0]
 80011e0:	f022 0240 	bic.w	r2, r2, #64	; 0x40
 80011e4:	601a      	str	r2, [r3, #0]
 80011e6:	68fb      	ldr	r3, [r7, #12]
 80011e8:	8d5b      	ldrh	r3, [r3, #42]	; 0x2a
 80011ea:	b29b      	uxth	r3, r3
 80011ec:	2b00      	cmp	r3, #0
 80011ee:	d04e      	beq.n	800128e <I2C_Master_ISR_DMA+0x126>
 80011f0:	68fb      	ldr	r3, [r7, #12]
 80011f2:	681b      	ldr	r3, [r3, #0]
 80011f4:	685b      	ldr	r3, [r3, #4]
 80011f6:	b29b      	uxth	r3, r3
 80011f8:	f3c3 0309 	ubfx	r3, r3, #0, #10
 80011fc:	827b      	strh	r3, [r7, #18]
 80011fe:	68fb      	ldr	r3, [r7, #12]
 8001200:	8d5b      	ldrh	r3, [r3, #42]	; 0x2a
 8001202:	b29b      	uxth	r3, r3
 8001204:	2bff      	cmp	r3, #255	; 0xff
 8001206:	d906      	bls.n	8001216 <I2C_Master_ISR_DMA+0xae>
 8001208:	68fb      	ldr	r3, [r7, #12]
 800120a:	22ff      	movs	r2, #255	; 0xff
 800120c:	851a      	strh	r2, [r3, #40]	; 0x28
 800120e:	f04f 7380 	mov.w	r3, #16777216	; 0x1000000
 8001212:	617b      	str	r3, [r7, #20]
 8001214:	e010      	b.n	8001238 <I2C_Master_ISR_DMA+0xd0>
 8001216:	68fb      	ldr	r3, [r7, #12]
 8001218:	8d5b      	ldrh	r3, [r3, #42]	; 0x2a
 800121a:	b29a      	uxth	r2, r3
 800121c:	68fb      	ldr	r3, [r7, #12]
 800121e:	851a      	strh	r2, [r3, #40]	; 0x28
 8001220:	68fb      	ldr	r3, [r7, #12]
 8001222:	6adb      	ldr	r3, [r3, #44]	; 0x2c
 8001224:	f513 3f80 	cmn.w	r3, #65536	; 0x10000
 8001228:	d003      	beq.n	8001232 <I2C_Master_ISR_DMA+0xca>
 800122a:	68fb      	ldr	r3, [r7, #12]
 800122c:	6adb      	ldr	r3, [r3, #44]	; 0x2c
 800122e:	617b      	str	r3, [r7, #20]
 8001230:	e002      	b.n	8001238 <I2C_Master_ISR_DMA+0xd0>
 8001232:	f04f 7300 	mov.w	r3, #33554432	; 0x2000000
 8001236:	617b      	str	r3, [r7, #20]
 8001238:	68fb      	ldr	r3, [r7, #12]
 800123a:	8d1b      	ldrh	r3, [r3, #40]	; 0x28
 800123c:	b2da      	uxtb	r2, r3
 800123e:	8a79      	ldrh	r1, [r7, #18]
 8001240:	2300      	movs	r3, #0
 8001242:	9300      	str	r3, [sp, #0]
 8001244:	697b      	ldr	r3, [r7, #20]
 8001246:	68f8      	ldr	r0, [r7, #12]
 8001248:	f000 fdd8 	bl	8001dfc <I2C_TransferConfig>
 800124c:	68fb      	ldr	r3, [r7, #12]
 800124e:	8d5b      	ldrh	r3, [r3, #42]	; 0x2a
 8001250:	b29a      	uxth	r2, r3
 8001252:	68fb      	ldr	r3, [r7, #12]
 8001254:	8d1b      	ldrh	r3, [r3, #40]	; 0x28
 8001256:	1ad3      	subs	r3, r2, r3
 8001258:	b29a      	uxth	r2, r3
 800125a:	68fb      	ldr	r3, [r7, #12]
 800125c:	855a      	strh	r2, [r3, #42]	; 0x2a
 800125e:	68fb      	ldr	r3, [r7, #12]
 8001260:	f893 3041 	ldrb.w	r3, [r3, #65]	; 0x41
 8001264:	b2db      	uxtb	r3, r3
 8001266:	2b22      	cmp	r3, #34	; 0x22
 8001268:	d108      	bne.n	800127c <I2C_Master_ISR_DMA+0x114>
 800126a:	68fb      	ldr	r3, [r7, #12]
 800126c:	681b      	ldr	r3, [r3, #0]
 800126e:	68fa      	ldr	r2, [r7, #12]
 8001270:	6812      	ldr	r2, [r2, #0]
 8001272:	6812      	ldr	r2, [r2, #0]
 8001274:	f442 4200 	orr.w	r2, r2, #32768	; 0x8000
 8001278:	601a      	str	r2, [r3, #0]
 800127a:	e057      	b.n	800132c <I2C_Master_ISR_DMA+0x1c4>
 800127c:	68fb      	ldr	r3, [r7, #12]
 800127e:	681b      	ldr	r3, [r3, #0]
 8001280:	68fa      	ldr	r2, [r7, #12]
 8001282:	6812      	ldr	r2, [r2, #0]
 8001284:	6812      	ldr	r2, [r2, #0]
 8001286:	f442 4280 	orr.w	r2, r2, #16384	; 0x4000
 800128a:	601a      	str	r2, [r3, #0]
 800128c:	e04e      	b.n	800132c <I2C_Master_ISR_DMA+0x1c4>
 800128e:	68fb      	ldr	r3, [r7, #12]
 8001290:	681b      	ldr	r3, [r3, #0]
 8001292:	685b      	ldr	r3, [r3, #4]
 8001294:	f003 7300 	and.w	r3, r3, #33554432	; 0x2000000
 8001298:	f1b3 7f00 	cmp.w	r3, #33554432	; 0x2000000
 800129c:	d003      	beq.n	80012a6 <I2C_Master_ISR_DMA+0x13e>
 800129e:	68f8      	ldr	r0, [r7, #12]
 80012a0:	f000 f9a7 	bl	80015f2 <I2C_ITMasterSeqCplt>
 80012a4:	e042      	b.n	800132c <I2C_Master_ISR_DMA+0x1c4>
 80012a6:	2140      	movs	r1, #64	; 0x40
 80012a8:	68f8      	ldr	r0, [r7, #12]
 80012aa:	f000 fc6b 	bl	8001b84 <I2C_ITError>
 80012ae:	e03d      	b.n	800132c <I2C_Master_ISR_DMA+0x1c4>
 80012b0:	68bb      	ldr	r3, [r7, #8]
 80012b2:	f003 0340 	and.w	r3, r3, #64	; 0x40
 80012b6:	2b00      	cmp	r3, #0
 80012b8:	d028      	beq.n	800130c <I2C_Master_ISR_DMA+0x1a4>
 80012ba:	687b      	ldr	r3, [r7, #4]
 80012bc:	f003 0340 	and.w	r3, r3, #64	; 0x40
 80012c0:	2b00      	cmp	r3, #0
 80012c2:	d023      	beq.n	800130c <I2C_Master_ISR_DMA+0x1a4>
 80012c4:	68fb      	ldr	r3, [r7, #12]
 80012c6:	8d5b      	ldrh	r3, [r3, #42]	; 0x2a
 80012c8:	b29b      	uxth	r3, r3
 80012ca:	2b00      	cmp	r3, #0
 80012cc:	d119      	bne.n	8001302 <I2C_Master_ISR_DMA+0x19a>
 80012ce:	68fb      	ldr	r3, [r7, #12]
 80012d0:	681b      	ldr	r3, [r3, #0]
 80012d2:	685b      	ldr	r3, [r3, #4]
 80012d4:	f003 7300 	and.w	r3, r3, #33554432	; 0x2000000
 80012d8:	f1b3 7f00 	cmp.w	r3, #33554432	; 0x2000000
 80012dc:	d025      	beq.n	800132a <I2C_Master_ISR_DMA+0x1c2>
 80012de:	68fb      	ldr	r3, [r7, #12]
 80012e0:	6adb      	ldr	r3, [r3, #44]	; 0x2c
 80012e2:	f513 3f80 	cmn.w	r3, #65536	; 0x10000
 80012e6:	d108      	bne.n	80012fa <I2C_Master_ISR_DMA+0x192>
 80012e8:	68fb      	ldr	r3, [r7, #12]
 80012ea:	681b      	ldr	r3, [r3, #0]
 80012ec:	68fa      	ldr	r2, [r7, #12]
 80012ee:	6812      	ldr	r2, [r2, #0]
 80012f0:	6852      	ldr	r2, [r2, #4]
 80012f2:	f442 4280 	orr.w	r2, r2, #16384	; 0x4000
 80012f6:	605a      	str	r2, [r3, #4]
 80012f8:	e017      	b.n	800132a <I2C_Master_ISR_DMA+0x1c2>
 80012fa:	68f8      	ldr	r0, [r7, #12]
 80012fc:	f000 f979 	bl	80015f2 <I2C_ITMasterSeqCplt>
 8001300:	e013      	b.n	800132a <I2C_Master_ISR_DMA+0x1c2>
 8001302:	2140      	movs	r1, #64	; 0x40
 8001304:	68f8      	ldr	r0, [r7, #12]
 8001306:	f000 fc3d 	bl	8001b84 <I2C_ITError>
 800130a:	e00e      	b.n	800132a <I2C_Master_ISR_DMA+0x1c2>
 800130c:	68bb      	ldr	r3, [r7, #8]
 800130e:	f003 0320 	and.w	r3, r3, #32
 8001312:	2b00      	cmp	r3, #0
 8001314:	d00a      	beq.n	800132c <I2C_Master_ISR_DMA+0x1c4>
 8001316:	687b      	ldr	r3, [r7, #4]
 8001318:	f003 0320 	and.w	r3, r3, #32
 800131c:	2b00      	cmp	r3, #0
 800131e:	d005      	beq.n	800132c <I2C_Master_ISR_DMA+0x1c4>
 8001320:	68b9      	ldr	r1, [r7, #8]
 8001322:	68f8      	ldr	r0, [r7, #12]
 8001324:	f000 fa02 	bl	800172c <I2C_ITMasterCplt>
 8001328:	e000      	b.n	800132c <I2C_Master_ISR_DMA+0x1c4>
 800132a:	bf00      	nop
 800132c:	68fb      	ldr	r3, [r7, #12]
 800132e:	2200      	movs	r2, #0
 8001330:	f883 2040 	strb.w	r2, [r3, #64]	; 0x40
 8001334:	2300      	movs	r3, #0
 8001336:	4618      	mov	r0, r3
 8001338:	3718      	adds	r7, #24
 800133a:	46bd      	mov	sp, r7
 800133c:	bd80      	pop	{r7, pc}

0800133e <I2C_Slave_ISR_DMA>:
 800133e:	b580      	push	{r7, lr}
 8001340:	b088      	sub	sp, #32
 8001342:	af00      	add	r7, sp, #0
 8001344:	60f8      	str	r0, [r7, #12]
 8001346:	60b9      	str	r1, [r7, #8]
 8001348:	607a      	str	r2, [r7, #4]
 800134a:	68fb      	ldr	r3, [r7, #12]
 800134c:	6adb      	ldr	r3, [r3, #44]	; 0x2c
 800134e:	61bb      	str	r3, [r7, #24]
 8001350:	2300      	movs	r3, #0
 8001352:	61fb      	str	r3, [r7, #28]
 8001354:	68fb      	ldr	r3, [r7, #12]
 8001356:	f893 3040 	ldrb.w	r3, [r3, #64]	; 0x40
 800135a:	2b01      	cmp	r3, #1
 800135c:	d101      	bne.n	8001362 <I2C_Slave_ISR_DMA+0x24>
 800135e:	2302      	movs	r3, #2
 8001360:	e0bf      	b.n	80014e2 <I2C_Slave_ISR_DMA+0x1a4>
 8001362:	68fb      	ldr	r3, [r7, #12]
 8001364:	2201      	movs	r2, #1
 8001366:	f883 2040 	strb.w	r2, [r3, #64]	; 0x40
 800136a:	68bb      	ldr	r3, [r7, #8]
 800136c:	f003 0320 	and.w	r3, r3, #32
 8001370:	2b00      	cmp	r3, #0
 8001372:	d008      	beq.n	8001386 <I2C_Slave_ISR_DMA+0x48>
 8001374:	687b      	ldr	r3, [r7, #4]
 8001376:	f003 0320 	and.w	r3, r3, #32
 800137a:	2b00      	cmp	r3, #0
 800137c:	d003      	beq.n	8001386 <I2C_Slave_ISR_DMA+0x48>
 800137e:	68b9      	ldr	r1, [r7, #8]
 8001380:	68f8      	ldr	r0, [r7, #12]
 8001382:	f000 fa9f 	bl	80018c4 <I2C_ITSlaveCplt>
 8001386:	68bb      	ldr	r3, [r7, #8]
 8001388:	f003 0310 	and.w	r3, r3, #16
 800138c:	2b00      	cmp	r3, #0
 800138e:	f000 8095 	beq.w	80014bc <I2C_Slave_ISR_DMA+0x17e>
 8001392:	687b      	ldr	r3, [r7, #4]
 8001394:	f003 0310 	and.w	r3, r3, #16
 8001398:	2b00      	cmp	r3, #0
 800139a:	f000 808f 	beq.w	80014bc <I2C_Slave_ISR_DMA+0x17e>
 800139e:	687b      	ldr	r3, [r7, #4]
 80013a0:	f403 4380 	and.w	r3, r3, #16384	; 0x4000
 80013a4:	2b00      	cmp	r3, #0
 80013a6:	d104      	bne.n	80013b2 <I2C_Slave_ISR_DMA+0x74>
 80013a8:	687b      	ldr	r3, [r7, #4]
 80013aa:	f403 4300 	and.w	r3, r3, #32768	; 0x8000
 80013ae:	2b00      	cmp	r3, #0
 80013b0:	d07d      	beq.n	80014ae <I2C_Slave_ISR_DMA+0x170>
 80013b2:	68fb      	ldr	r3, [r7, #12]
 80013b4:	6bdb      	ldr	r3, [r3, #60]	; 0x3c
 80013b6:	2b00      	cmp	r3, #0
 80013b8:	d00c      	beq.n	80013d4 <I2C_Slave_ISR_DMA+0x96>
 80013ba:	687b      	ldr	r3, [r7, #4]
 80013bc:	f403 4300 	and.w	r3, r3, #32768	; 0x8000
 80013c0:	2b00      	cmp	r3, #0
 80013c2:	d007      	beq.n	80013d4 <I2C_Slave_ISR_DMA+0x96>
 80013c4:	68fb      	ldr	r3, [r7, #12]
 80013c6:	6bdb      	ldr	r3, [r3, #60]	; 0x3c
 80013c8:	681b      	ldr	r3, [r3, #0]
 80013ca:	685b      	ldr	r3, [r3, #4]
 80013cc:	2b00      	cmp	r3, #0
 80013ce:	d101      	bne.n	80013d4 <I2C_Slave_ISR_DMA+0x96>
 80013d0:	2301      	movs	r3, #1
 80013d2:	61fb      	str	r3, [r7, #28]
 80013d4:	68fb      	ldr	r3, [r7, #12]
 80013d6:	6b9b      	ldr	r3, [r3, #56]	; 0x38
 80013d8:	2b00      	cmp	r3, #0
 80013da:	d00c      	beq.n	80013f6 <I2C_Slave_ISR_DMA+0xb8>
 80013dc:	687b      	ldr	r3, [r7, #4]
 80013de:	f403 4380 	and.w	r3, r3, #16384	; 0x4000
 80013e2:	2b00      	cmp	r3, #0
 80013e4:	d007      	beq.n	80013f6 <I2C_Slave_ISR_DMA+0xb8>
 80013e6:	68fb      	ldr	r3, [r7, #12]
 80013e8:	6b9b      	ldr	r3, [r3, #56]	; 0x38
 80013ea:	681b      	ldr	r3, [r3, #0]
 80013ec:	685b      	ldr	r3, [r3, #4]
 80013ee:	2b00      	cmp	r3, #0
 80013f0:	d101      	bne.n	80013f6 <I2C_Slave_ISR_DMA+0xb8>
 80013f2:	2301      	movs	r3, #1
 80013f4:	61fb      	str	r3, [r7, #28]
 80013f6:	69fb      	ldr	r3, [r7, #28]
 80013f8:	2b01      	cmp	r3, #1
 80013fa:	d128      	bne.n	800144e <I2C_Slave_ISR_DMA+0x110>
 80013fc:	68fb      	ldr	r3, [r7, #12]
 80013fe:	f893 3041 	ldrb.w	r3, [r3, #65]	; 0x41
 8001402:	b2db      	uxtb	r3, r3
 8001404:	2b28      	cmp	r3, #40	; 0x28
 8001406:	d108      	bne.n	800141a <I2C_Slave_ISR_DMA+0xdc>
 8001408:	69bb      	ldr	r3, [r7, #24]
 800140a:	f1b3 7f00 	cmp.w	r3, #33554432	; 0x2000000
 800140e:	d104      	bne.n	800141a <I2C_Slave_ISR_DMA+0xdc>
 8001410:	68b9      	ldr	r1, [r7, #8]
 8001412:	68f8      	ldr	r0, [r7, #12]
 8001414:	f000 fb60 	bl	8001ad8 <I2C_ITListenCplt>
 8001418:	e048      	b.n	80014ac <I2C_Slave_ISR_DMA+0x16e>
 800141a:	68fb      	ldr	r3, [r7, #12]
 800141c:	f893 3041 	ldrb.w	r3, [r3, #65]	; 0x41
 8001420:	b2db      	uxtb	r3, r3
 8001422:	2b29      	cmp	r3, #41	; 0x29
 8001424:	d10e      	bne.n	8001444 <I2C_Slave_ISR_DMA+0x106>
 8001426:	69bb      	ldr	r3, [r7, #24]
 8001428:	f513 3f80 	cmn.w	r3, #65536	; 0x10000
 800142c:	d00a      	beq.n	8001444 <I2C_Slave_ISR_DMA+0x106>
 800142e:	68fb      	ldr	r3, [r7, #12]
 8001430:	681b      	ldr	r3, [r3, #0]
 8001432:	2210      	movs	r2, #16
 8001434:	61da      	str	r2, [r3, #28]
 8001436:	68f8      	ldr	r0, [r7, #12]
 8001438:	f000 fc9d 	bl	8001d76 <I2C_Flush_TXDR>
 800143c:	68f8      	ldr	r0, [r7, #12]
 800143e:	f000 f917 	bl	8001670 <I2C_ITSlaveSeqCplt>
 8001442:	e033      	b.n	80014ac <I2C_Slave_ISR_DMA+0x16e>
 8001444:	68fb      	ldr	r3, [r7, #12]
 8001446:	681b      	ldr	r3, [r3, #0]
 8001448:	2210      	movs	r2, #16
 800144a:	61da      	str	r2, [r3, #28]
 800144c:	e034      	b.n	80014b8 <I2C_Slave_ISR_DMA+0x17a>
 800144e:	68fb      	ldr	r3, [r7, #12]
 8001450:	681b      	ldr	r3, [r3, #0]
 8001452:	2210      	movs	r2, #16
 8001454:	61da      	str	r2, [r3, #28]
 8001456:	68fb      	ldr	r3, [r7, #12]
 8001458:	6c5b      	ldr	r3, [r3, #68]	; 0x44
 800145a:	f043 0204 	orr.w	r2, r3, #4
 800145e:	68fb      	ldr	r3, [r7, #12]
 8001460:	645a      	str	r2, [r3, #68]	; 0x44
 8001462:	68fb      	ldr	r3, [r7, #12]
 8001464:	f893 3041 	ldrb.w	r3, [r3, #65]	; 0x41
 8001468:	75fb      	strb	r3, [r7, #23]
 800146a:	69bb      	ldr	r3, [r7, #24]
 800146c:	2b00      	cmp	r3, #0
 800146e:	d003      	beq.n	8001478 <I2C_Slave_ISR_DMA+0x13a>
 8001470:	69bb      	ldr	r3, [r7, #24]
 8001472:	f1b3 7f80 	cmp.w	r3, #16777216	; 0x1000000
 8001476:	d11f      	bne.n	80014b8 <I2C_Slave_ISR_DMA+0x17a>
 8001478:	7dfb      	ldrb	r3, [r7, #23]
 800147a:	2b21      	cmp	r3, #33	; 0x21
 800147c:	d002      	beq.n	8001484 <I2C_Slave_ISR_DMA+0x146>
 800147e:	7dfb      	ldrb	r3, [r7, #23]
 8001480:	2b29      	cmp	r3, #41	; 0x29
 8001482:	d103      	bne.n	800148c <I2C_Slave_ISR_DMA+0x14e>
 8001484:	68fb      	ldr	r3, [r7, #12]
 8001486:	2221      	movs	r2, #33	; 0x21
 8001488:	631a      	str	r2, [r3, #48]	; 0x30
 800148a:	e008      	b.n	800149e <I2C_Slave_ISR_DMA+0x160>
 800148c:	7dfb      	ldrb	r3, [r7, #23]
 800148e:	2b22      	cmp	r3, #34	; 0x22
 8001490:	d002      	beq.n	8001498 <I2C_Slave_ISR_DMA+0x15a>
 8001492:	7dfb      	ldrb	r3, [r7, #23]
 8001494:	2b2a      	cmp	r3, #42	; 0x2a
 8001496:	d102      	bne.n	800149e <I2C_Slave_ISR_DMA+0x160>
 8001498:	68fb      	ldr	r3, [r7, #12]
 800149a:	2222      	movs	r2, #34	; 0x22
 800149c:	631a      	str	r2, [r3, #48]	; 0x30
 800149e:	68fb      	ldr	r3, [r7, #12]
 80014a0:	6c5b      	ldr	r3, [r3, #68]	; 0x44
 80014a2:	4619      	mov	r1, r3
 80014a4:	68f8      	ldr	r0, [r7, #12]
 80014a6:	f000 fb6d 	bl	8001b84 <I2C_ITError>
 80014aa:	e005      	b.n	80014b8 <I2C_Slave_ISR_DMA+0x17a>
 80014ac:	e004      	b.n	80014b8 <I2C_Slave_ISR_DMA+0x17a>
 80014ae:	68fb      	ldr	r3, [r7, #12]
 80014b0:	681b      	ldr	r3, [r3, #0]
 80014b2:	2210      	movs	r2, #16
 80014b4:	61da      	str	r2, [r3, #28]
 80014b6:	e00f      	b.n	80014d8 <I2C_Slave_ISR_DMA+0x19a>
 80014b8:	bf00      	nop
 80014ba:	e00d      	b.n	80014d8 <I2C_Slave_ISR_DMA+0x19a>
 80014bc:	68bb      	ldr	r3, [r7, #8]
 80014be:	f003 0308 	and.w	r3, r3, #8
 80014c2:	2b00      	cmp	r3, #0
 80014c4:	d008      	beq.n	80014d8 <I2C_Slave_ISR_DMA+0x19a>
 80014c6:	687b      	ldr	r3, [r7, #4]
 80014c8:	f003 0308 	and.w	r3, r3, #8
 80014cc:	2b00      	cmp	r3, #0
 80014ce:	d003      	beq.n	80014d8 <I2C_Slave_ISR_DMA+0x19a>
 80014d0:	68b9      	ldr	r1, [r7, #8]
 80014d2:	68f8      	ldr	r0, [r7, #12]
 80014d4:	f000 f809 	bl	80014ea <I2C_ITAddrCplt>
 80014d8:	68fb      	ldr	r3, [r7, #12]
 80014da:	2200      	movs	r2, #0
 80014dc:	f883 2040 	strb.w	r2, [r3, #64]	; 0x40
 80014e0:	2300      	movs	r3, #0
 80014e2:	4618      	mov	r0, r3
 80014e4:	3720      	adds	r7, #32
 80014e6:	46bd      	mov	sp, r7
 80014e8:	bd80      	pop	{r7, pc}

080014ea <I2C_ITAddrCplt>:
 80014ea:	b580      	push	{r7, lr}
 80014ec:	b084      	sub	sp, #16
 80014ee:	af00      	add	r7, sp, #0
 80014f0:	6078      	str	r0, [r7, #4]
 80014f2:	6039      	str	r1, [r7, #0]
 80014f4:	687b      	ldr	r3, [r7, #4]
 80014f6:	f893 3041 	ldrb.w	r3, [r3, #65]	; 0x41
 80014fa:	b2db      	uxtb	r3, r3
 80014fc:	f003 0328 	and.w	r3, r3, #40	; 0x28
 8001500:	2b28      	cmp	r3, #40	; 0x28
 8001502:	d16a      	bne.n	80015da <I2C_ITAddrCplt+0xf0>
 8001504:	687b      	ldr	r3, [r7, #4]
 8001506:	681b      	ldr	r3, [r3, #0]
 8001508:	699b      	ldr	r3, [r3, #24]
 800150a:	0c1b      	lsrs	r3, r3, #16
 800150c:	b2db      	uxtb	r3, r3
 800150e:	f003 0301 	and.w	r3, r3, #1
 8001512:	73fb      	strb	r3, [r7, #15]
 8001514:	687b      	ldr	r3, [r7, #4]
 8001516:	681b      	ldr	r3, [r3, #0]
 8001518:	699b      	ldr	r3, [r3, #24]
 800151a:	0c1b      	lsrs	r3, r3, #16
 800151c:	b29b      	uxth	r3, r3
 800151e:	f003 03fe 	and.w	r3, r3, #254	; 0xfe
 8001522:	81bb      	strh	r3, [r7, #12]
 8001524:	687b      	ldr	r3, [r7, #4]
 8001526:	681b      	ldr	r3, [r3, #0]
 8001528:	689b      	ldr	r3, [r3, #8]
 800152a:	b29b      	uxth	r3, r3
 800152c:	f3c3 0309 	ubfx	r3, r3, #0, #10
 8001530:	817b      	strh	r3, [r7, #10]
 8001532:	687b      	ldr	r3, [r7, #4]
 8001534:	681b      	ldr	r3, [r3, #0]
 8001536:	68db      	ldr	r3, [r3, #12]
 8001538:	b29b      	uxth	r3, r3
 800153a:	f003 03fe 	and.w	r3, r3, #254	; 0xfe
 800153e:	813b      	strh	r3, [r7, #8]
 8001540:	687b      	ldr	r3, [r7, #4]
 8001542:	68db      	ldr	r3, [r3, #12]
 8001544:	2b02      	cmp	r3, #2
 8001546:	d138      	bne.n	80015ba <I2C_ITAddrCplt+0xd0>
 8001548:	897b      	ldrh	r3, [r7, #10]
 800154a:	09db      	lsrs	r3, r3, #7
 800154c:	b29a      	uxth	r2, r3
 800154e:	89bb      	ldrh	r3, [r7, #12]
 8001550:	4053      	eors	r3, r2
 8001552:	b29b      	uxth	r3, r3
 8001554:	f003 0306 	and.w	r3, r3, #6
 8001558:	2b00      	cmp	r3, #0
 800155a:	d11c      	bne.n	8001596 <I2C_ITAddrCplt+0xac>
 800155c:	897b      	ldrh	r3, [r7, #10]
 800155e:	81bb      	strh	r3, [r7, #12]
 8001560:	687b      	ldr	r3, [r7, #4]
 8001562:	6c9b      	ldr	r3, [r3, #72]	; 0x48
 8001564:	1c5a      	adds	r2, r3, #1
 8001566:	687b      	ldr	r3, [r7, #4]
 8001568:	649a      	str	r2, [r3, #72]	; 0x48
 800156a:	687b      	ldr	r3, [r7, #4]
 800156c:	6c9b      	ldr	r3, [r3, #72]	; 0x48
 800156e:	2b02      	cmp	r3, #2
 8001570:	d13b      	bne.n	80015ea <I2C_ITAddrCplt+0x100>
 8001572:	687b      	ldr	r3, [r7, #4]
 8001574:	2200      	movs	r2, #0
 8001576:	649a      	str	r2, [r3, #72]	; 0x48
 8001578:	687b      	ldr	r3, [r7, #4]
 800157a:	681b      	ldr	r3, [r3, #0]
 800157c:	2208      	movs	r2, #8
 800157e:	61da      	str	r2, [r3, #28]
 8001580:	687b      	ldr	r3, [r7, #4]
 8001582:	2200      	movs	r2, #0
 8001584:	f883 2040 	strb.w	r2, [r3, #64]	; 0x40
 8001588:	687b      	ldr	r3, [r7, #4]
 800158a:	6f9b      	ldr	r3, [r3, #120]	; 0x78
 800158c:	89ba      	ldrh	r2, [r7, #12]
 800158e:	7bf9      	ldrb	r1, [r7, #15]
 8001590:	6878      	ldr	r0, [r7, #4]
 8001592:	4798      	blx	r3
 8001594:	e029      	b.n	80015ea <I2C_ITAddrCplt+0x100>
 8001596:	893b      	ldrh	r3, [r7, #8]
 8001598:	81bb      	strh	r3, [r7, #12]
 800159a:	f44f 4100 	mov.w	r1, #32768	; 0x8000
 800159e:	6878      	ldr	r0, [r7, #4]
 80015a0:	f000 fcc6 	bl	8001f30 <I2C_Disable_IRQ>
 80015a4:	687b      	ldr	r3, [r7, #4]
 80015a6:	2200      	movs	r2, #0
 80015a8:	f883 2040 	strb.w	r2, [r3, #64]	; 0x40
 80015ac:	687b      	ldr	r3, [r7, #4]
 80015ae:	6f9b      	ldr	r3, [r3, #120]	; 0x78
 80015b0:	89ba      	ldrh	r2, [r7, #12]
 80015b2:	7bf9      	ldrb	r1, [r7, #15]
 80015b4:	6878      	ldr	r0, [r7, #4]
 80015b6:	4798      	blx	r3
 80015b8:	e017      	b.n	80015ea <I2C_ITAddrCplt+0x100>
 80015ba:	f44f 4100 	mov.w	r1, #32768	; 0x8000
 80015be:	6878      	ldr	r0, [r7, #4]
 80015c0:	f000 fcb6 	bl	8001f30 <I2C_Disable_IRQ>
 80015c4:	687b      	ldr	r3, [r7, #4]
 80015c6:	2200      	movs	r2, #0
 80015c8:	f883 2040 	strb.w	r2, [r3, #64]	; 0x40
 80015cc:	687b      	ldr	r3, [r7, #4]
 80015ce:	6f9b      	ldr	r3, [r3, #120]	; 0x78
 80015d0:	89ba      	ldrh	r2, [r7, #12]
 80015d2:	7bf9      	ldrb	r1, [r7, #15]
 80015d4:	6878      	ldr	r0, [r7, #4]
 80015d6:	4798      	blx	r3
 80015d8:	e007      	b.n	80015ea <I2C_ITAddrCplt+0x100>
 80015da:	687b      	ldr	r3, [r7, #4]
 80015dc:	681b      	ldr	r3, [r3, #0]
 80015de:	2208      	movs	r2, #8
 80015e0:	61da      	str	r2, [r3, #28]
 80015e2:	687b      	ldr	r3, [r7, #4]
 80015e4:	2200      	movs	r2, #0
 80015e6:	f883 2040 	strb.w	r2, [r3, #64]	; 0x40
 80015ea:	bf00      	nop
 80015ec:	3710      	adds	r7, #16
 80015ee:	46bd      	mov	sp, r7
 80015f0:	bd80      	pop	{r7, pc}

080015f2 <I2C_ITMasterSeqCplt>:
 80015f2:	b580      	push	{r7, lr}
 80015f4:	b082      	sub	sp, #8
 80015f6:	af00      	add	r7, sp, #0
 80015f8:	6078      	str	r0, [r7, #4]
 80015fa:	687b      	ldr	r3, [r7, #4]
 80015fc:	2200      	movs	r2, #0
 80015fe:	f883 2042 	strb.w	r2, [r3, #66]	; 0x42
 8001602:	687b      	ldr	r3, [r7, #4]
 8001604:	f893 3041 	ldrb.w	r3, [r3, #65]	; 0x41
 8001608:	b2db      	uxtb	r3, r3
 800160a:	2b21      	cmp	r3, #33	; 0x21
 800160c:	d116      	bne.n	800163c <I2C_ITMasterSeqCplt+0x4a>
 800160e:	687b      	ldr	r3, [r7, #4]
 8001610:	2220      	movs	r2, #32
 8001612:	f883 2041 	strb.w	r2, [r3, #65]	; 0x41
 8001616:	687b      	ldr	r3, [r7, #4]
 8001618:	2211      	movs	r2, #17
 800161a:	631a      	str	r2, [r3, #48]	; 0x30
 800161c:	687b      	ldr	r3, [r7, #4]
 800161e:	2200      	movs	r2, #0
 8001620:	635a      	str	r2, [r3, #52]	; 0x34
 8001622:	2101      	movs	r1, #1
 8001624:	6878      	ldr	r0, [r7, #4]
 8001626:	f000 fc83 	bl	8001f30 <I2C_Disable_IRQ>
 800162a:	687b      	ldr	r3, [r7, #4]
 800162c:	2200      	movs	r2, #0
 800162e:	f883 2040 	strb.w	r2, [r3, #64]	; 0x40
 8001632:	687b      	ldr	r3, [r7, #4]
 8001634:	6d5b      	ldr	r3, [r3, #84]	; 0x54
 8001636:	6878      	ldr	r0, [r7, #4]
 8001638:	4798      	blx	r3
 800163a:	e015      	b.n	8001668 <I2C_ITMasterSeqCplt+0x76>
 800163c:	687b      	ldr	r3, [r7, #4]
 800163e:	2220      	movs	r2, #32
 8001640:	f883 2041 	strb.w	r2, [r3, #65]	; 0x41
 8001644:	687b      	ldr	r3, [r7, #4]
 8001646:	2212      	movs	r2, #18
 8001648:	631a      	str	r2, [r3, #48]	; 0x30
 800164a:	687b      	ldr	r3, [r7, #4]
 800164c:	2200      	movs	r2, #0
 800164e:	635a      	str	r2, [r3, #52]	; 0x34
 8001650:	2102      	movs	r1, #2
 8001652:	6878      	ldr	r0, [r7, #4]
 8001654:	f000 fc6c 	bl	8001f30 <I2C_Disable_IRQ>
 8001658:	687b      	ldr	r3, [r7, #4]
 800165a:	2200      	movs	r2, #0
 800165c:	f883 2040 	strb.w	r2, [r3, #64]	; 0x40
 8001660:	687b      	ldr	r3, [r7, #4]
 8001662:	6d9b      	ldr	r3, [r3, #88]	; 0x58
 8001664:	6878      	ldr	r0, [r7, #4]
 8001666:	4798      	blx	r3
 8001668:	bf00      	nop
 800166a:	3708      	adds	r7, #8
 800166c:	46bd      	mov	sp, r7
 800166e:	bd80      	pop	{r7, pc}

08001670 <I2C_ITSlaveSeqCplt>:
 8001670:	b580      	push	{r7, lr}
 8001672:	b084      	sub	sp, #16
 8001674:	af00      	add	r7, sp, #0
 8001676:	6078      	str	r0, [r7, #4]
 8001678:	687b      	ldr	r3, [r7, #4]
 800167a:	681b      	ldr	r3, [r3, #0]
 800167c:	681b      	ldr	r3, [r3, #0]
 800167e:	60fb      	str	r3, [r7, #12]
 8001680:	687b      	ldr	r3, [r7, #4]
 8001682:	2200      	movs	r2, #0
 8001684:	f883 2042 	strb.w	r2, [r3, #66]	; 0x42
 8001688:	68fb      	ldr	r3, [r7, #12]
 800168a:	f403 4380 	and.w	r3, r3, #16384	; 0x4000
 800168e:	2b00      	cmp	r3, #0
 8001690:	d008      	beq.n	80016a4 <I2C_ITSlaveSeqCplt+0x34>
 8001692:	687b      	ldr	r3, [r7, #4]
 8001694:	681b      	ldr	r3, [r3, #0]
 8001696:	687a      	ldr	r2, [r7, #4]
 8001698:	6812      	ldr	r2, [r2, #0]
 800169a:	6812      	ldr	r2, [r2, #0]
 800169c:	f422 4280 	bic.w	r2, r2, #16384	; 0x4000
 80016a0:	601a      	str	r2, [r3, #0]
 80016a2:	e00c      	b.n	80016be <I2C_ITSlaveSeqCplt+0x4e>
 80016a4:	68fb      	ldr	r3, [r7, #12]
 80016a6:	f403 4300 	and.w	r3, r3, #32768	; 0x8000
 80016aa:	2b00      	cmp	r3, #0
 80016ac:	d007      	beq.n	80016be <I2C_ITSlaveSeqCplt+0x4e>
 80016ae:	687b      	ldr	r3, [r7, #4]
 80016b0:	681b      	ldr	r3, [r3, #0]
 80016b2:	687a      	ldr	r2, [r7, #4]
 80016b4:	6812      	ldr	r2, [r2, #0]
 80016b6:	6812      	ldr	r2, [r2, #0]
 80016b8:	f422 4200 	bic.w	r2, r2, #32768	; 0x8000
 80016bc:	601a      	str	r2, [r3, #0]
 80016be:	687b      	ldr	r3, [r7, #4]
 80016c0:	f893 3041 	ldrb.w	r3, [r3, #65]	; 0x41
 80016c4:	b2db      	uxtb	r3, r3
 80016c6:	2b29      	cmp	r3, #41	; 0x29
 80016c8:	d113      	bne.n	80016f2 <I2C_ITSlaveSeqCplt+0x82>
 80016ca:	687b      	ldr	r3, [r7, #4]
 80016cc:	2228      	movs	r2, #40	; 0x28
 80016ce:	f883 2041 	strb.w	r2, [r3, #65]	; 0x41
 80016d2:	687b      	ldr	r3, [r7, #4]
 80016d4:	2221      	movs	r2, #33	; 0x21
 80016d6:	631a      	str	r2, [r3, #48]	; 0x30
 80016d8:	2101      	movs	r1, #1
 80016da:	6878      	ldr	r0, [r7, #4]
 80016dc:	f000 fc28 	bl	8001f30 <I2C_Disable_IRQ>
 80016e0:	687b      	ldr	r3, [r7, #4]
 80016e2:	2200      	movs	r2, #0
 80016e4:	f883 2040 	strb.w	r2, [r3, #64]	; 0x40
 80016e8:	687b      	ldr	r3, [r7, #4]
 80016ea:	6ddb      	ldr	r3, [r3, #92]	; 0x5c
 80016ec:	6878      	ldr	r0, [r7, #4]
 80016ee:	4798      	blx	r3
 80016f0:	e018      	b.n	8001724 <I2C_ITSlaveSeqCplt+0xb4>
 80016f2:	687b      	ldr	r3, [r7, #4]
 80016f4:	f893 3041 	ldrb.w	r3, [r3, #65]	; 0x41
 80016f8:	b2db      	uxtb	r3, r3
 80016fa:	2b2a      	cmp	r3, #42	; 0x2a
 80016fc:	d112      	bne.n	8001724 <I2C_ITSlaveSeqCplt+0xb4>
 80016fe:	687b      	ldr	r3, [r7, #4]
 8001700:	2228      	movs	r2, #40	; 0x28
 8001702:	f883 2041 	strb.w	r2, [r3, #65]	; 0x41
 8001706:	687b      	ldr	r3, [r7, #4]
 8001708:	2222      	movs	r2, #34	; 0x22
 800170a:	631a      	str	r2, [r3, #48]	; 0x30
 800170c:	2102      	movs	r1, #2
 800170e:	6878      	ldr	r0, [r7, #4]
 8001710:	f000 fc0e 	bl	8001f30 <I2C_Disable_IRQ>
 8001714:	687b      	ldr	r3, [r7, #4]
 8001716:	2200      	movs	r2, #0
 8001718:	f883 2040 	strb.w	r2, [r3, #64]	; 0x40
 800171c:	687b      	ldr	r3, [r7, #4]
 800171e:	6e1b      	ldr	r3, [r3, #96]	; 0x60
 8001720:	6878      	ldr	r0, [r7, #4]
 8001722:	4798      	blx	r3
 8001724:	bf00      	nop
 8001726:	3710      	adds	r7, #16
 8001728:	46bd      	mov	sp, r7
 800172a:	bd80      	pop	{r7, pc}

0800172c <I2C_ITMasterCplt>:
 800172c:	b580      	push	{r7, lr}
 800172e:	b086      	sub	sp, #24
 8001730:	af00      	add	r7, sp, #0
 8001732:	6078      	str	r0, [r7, #4]
 8001734:	6039      	str	r1, [r7, #0]
 8001736:	683b      	ldr	r3, [r7, #0]
 8001738:	617b      	str	r3, [r7, #20]
 800173a:	687b      	ldr	r3, [r7, #4]
 800173c:	681b      	ldr	r3, [r3, #0]
 800173e:	2220      	movs	r2, #32
 8001740:	61da      	str	r2, [r3, #28]
 8001742:	687b      	ldr	r3, [r7, #4]
 8001744:	f893 3041 	ldrb.w	r3, [r3, #65]	; 0x41
 8001748:	b2db      	uxtb	r3, r3
 800174a:	2b21      	cmp	r3, #33	; 0x21
 800174c:	d107      	bne.n	800175e <I2C_ITMasterCplt+0x32>
 800174e:	2101      	movs	r1, #1
 8001750:	6878      	ldr	r0, [r7, #4]
 8001752:	f000 fbed 	bl	8001f30 <I2C_Disable_IRQ>
 8001756:	687b      	ldr	r3, [r7, #4]
 8001758:	2211      	movs	r2, #17
 800175a:	631a      	str	r2, [r3, #48]	; 0x30
 800175c:	e00c      	b.n	8001778 <I2C_ITMasterCplt+0x4c>
 800175e:	687b      	ldr	r3, [r7, #4]
 8001760:	f893 3041 	ldrb.w	r3, [r3, #65]	; 0x41
 8001764:	b2db      	uxtb	r3, r3
 8001766:	2b22      	cmp	r3, #34	; 0x22
 8001768:	d106      	bne.n	8001778 <I2C_ITMasterCplt+0x4c>
 800176a:	2102      	movs	r1, #2
 800176c:	6878      	ldr	r0, [r7, #4]
 800176e:	f000 fbdf 	bl	8001f30 <I2C_Disable_IRQ>
 8001772:	687b      	ldr	r3, [r7, #4]
 8001774:	2212      	movs	r2, #18
 8001776:	631a      	str	r2, [r3, #48]	; 0x30
 8001778:	687b      	ldr	r3, [r7, #4]
 800177a:	681a      	ldr	r2, [r3, #0]
 800177c:	687b      	ldr	r3, [r7, #4]
 800177e:	681b      	ldr	r3, [r3, #0]
 8001780:	6859      	ldr	r1, [r3, #4]
 8001782:	4b4e      	ldr	r3, [pc, #312]	; (80018bc <I2C_ITMasterCplt+0x190>)
 8001784:	400b      	ands	r3, r1
 8001786:	6053      	str	r3, [r2, #4]
 8001788:	687b      	ldr	r3, [r7, #4]
 800178a:	2200      	movs	r2, #0
 800178c:	635a      	str	r2, [r3, #52]	; 0x34
 800178e:	687b      	ldr	r3, [r7, #4]
 8001790:	4a4b      	ldr	r2, [pc, #300]	; (80018c0 <I2C_ITMasterCplt+0x194>)
 8001792:	62da      	str	r2, [r3, #44]	; 0x2c
 8001794:	697b      	ldr	r3, [r7, #20]
 8001796:	f003 0310 	and.w	r3, r3, #16
 800179a:	2b00      	cmp	r3, #0
 800179c:	d009      	beq.n	80017b2 <I2C_ITMasterCplt+0x86>
 800179e:	687b      	ldr	r3, [r7, #4]
 80017a0:	681b      	ldr	r3, [r3, #0]
 80017a2:	2210      	movs	r2, #16
 80017a4:	61da      	str	r2, [r3, #28]
 80017a6:	687b      	ldr	r3, [r7, #4]
 80017a8:	6c5b      	ldr	r3, [r3, #68]	; 0x44
 80017aa:	f043 0204 	orr.w	r2, r3, #4
 80017ae:	687b      	ldr	r3, [r7, #4]
 80017b0:	645a      	str	r2, [r3, #68]	; 0x44
 80017b2:	687b      	ldr	r3, [r7, #4]
 80017b4:	f893 3041 	ldrb.w	r3, [r3, #65]	; 0x41
 80017b8:	b2db      	uxtb	r3, r3
 80017ba:	2b60      	cmp	r3, #96	; 0x60
 80017bc:	d10a      	bne.n	80017d4 <I2C_ITMasterCplt+0xa8>
 80017be:	697b      	ldr	r3, [r7, #20]
 80017c0:	f003 0304 	and.w	r3, r3, #4
 80017c4:	2b00      	cmp	r3, #0
 80017c6:	d005      	beq.n	80017d4 <I2C_ITMasterCplt+0xa8>
 80017c8:	687b      	ldr	r3, [r7, #4]
 80017ca:	681b      	ldr	r3, [r3, #0]
 80017cc:	6a5b      	ldr	r3, [r3, #36]	; 0x24
 80017ce:	b2db      	uxtb	r3, r3
 80017d0:	60fb      	str	r3, [r7, #12]
 80017d2:	68fb      	ldr	r3, [r7, #12]
 80017d4:	6878      	ldr	r0, [r7, #4]
 80017d6:	f000 face 	bl	8001d76 <I2C_Flush_TXDR>
 80017da:	687b      	ldr	r3, [r7, #4]
 80017dc:	6c5b      	ldr	r3, [r3, #68]	; 0x44
 80017de:	613b      	str	r3, [r7, #16]
 80017e0:	687b      	ldr	r3, [r7, #4]
 80017e2:	f893 3041 	ldrb.w	r3, [r3, #65]	; 0x41
 80017e6:	b2db      	uxtb	r3, r3
 80017e8:	2b60      	cmp	r3, #96	; 0x60
 80017ea:	d002      	beq.n	80017f2 <I2C_ITMasterCplt+0xc6>
 80017ec:	693b      	ldr	r3, [r7, #16]
 80017ee:	2b00      	cmp	r3, #0
 80017f0:	d006      	beq.n	8001800 <I2C_ITMasterCplt+0xd4>
 80017f2:	687b      	ldr	r3, [r7, #4]
 80017f4:	6c5b      	ldr	r3, [r3, #68]	; 0x44
 80017f6:	4619      	mov	r1, r3
 80017f8:	6878      	ldr	r0, [r7, #4]
 80017fa:	f000 f9c3 	bl	8001b84 <I2C_ITError>
 80017fe:	e058      	b.n	80018b2 <I2C_ITMasterCplt+0x186>
 8001800:	687b      	ldr	r3, [r7, #4]
 8001802:	f893 3041 	ldrb.w	r3, [r3, #65]	; 0x41
 8001806:	b2db      	uxtb	r3, r3
 8001808:	2b21      	cmp	r3, #33	; 0x21
 800180a:	d126      	bne.n	800185a <I2C_ITMasterCplt+0x12e>
 800180c:	687b      	ldr	r3, [r7, #4]
 800180e:	2220      	movs	r2, #32
 8001810:	f883 2041 	strb.w	r2, [r3, #65]	; 0x41
 8001814:	687b      	ldr	r3, [r7, #4]
 8001816:	2200      	movs	r2, #0
 8001818:	631a      	str	r2, [r3, #48]	; 0x30
 800181a:	687b      	ldr	r3, [r7, #4]
 800181c:	f893 3042 	ldrb.w	r3, [r3, #66]	; 0x42
 8001820:	b2db      	uxtb	r3, r3
 8001822:	2b40      	cmp	r3, #64	; 0x40
 8001824:	d10c      	bne.n	8001840 <I2C_ITMasterCplt+0x114>
 8001826:	687b      	ldr	r3, [r7, #4]
 8001828:	2200      	movs	r2, #0
 800182a:	f883 2042 	strb.w	r2, [r3, #66]	; 0x42
 800182e:	687b      	ldr	r3, [r7, #4]
 8001830:	2200      	movs	r2, #0
 8001832:	f883 2040 	strb.w	r2, [r3, #64]	; 0x40
 8001836:	687b      	ldr	r3, [r7, #4]
 8001838:	6e9b      	ldr	r3, [r3, #104]	; 0x68
 800183a:	6878      	ldr	r0, [r7, #4]
 800183c:	4798      	blx	r3
 800183e:	e038      	b.n	80018b2 <I2C_ITMasterCplt+0x186>
 8001840:	687b      	ldr	r3, [r7, #4]
 8001842:	2200      	movs	r2, #0
 8001844:	f883 2042 	strb.w	r2, [r3, #66]	; 0x42
 8001848:	687b      	ldr	r3, [r7, #4]
 800184a:	2200      	movs	r2, #0
 800184c:	f883 2040 	strb.w	r2, [r3, #64]	; 0x40
 8001850:	687b      	ldr	r3, [r7, #4]
 8001852:	6d5b      	ldr	r3, [r3, #84]	; 0x54
 8001854:	6878      	ldr	r0, [r7, #4]
 8001856:	4798      	blx	r3
 8001858:	e02b      	b.n	80018b2 <I2C_ITMasterCplt+0x186>
 800185a:	687b      	ldr	r3, [r7, #4]
 800185c:	f893 3041 	ldrb.w	r3, [r3, #65]	; 0x41
 8001860:	b2db      	uxtb	r3, r3
 8001862:	2b22      	cmp	r3, #34	; 0x22
 8001864:	d125      	bne.n	80018b2 <I2C_ITMasterCplt+0x186>
 8001866:	687b      	ldr	r3, [r7, #4]
 8001868:	2220      	movs	r2, #32
 800186a:	f883 2041 	strb.w	r2, [r3, #65]	; 0x41
 800186e:	687b      	ldr	r3, [r7, #4]
 8001870:	2200      	movs	r2, #0
 8001872:	631a      	str	r2, [r3, #48]	; 0x30
 8001874:	687b      	ldr	r3, [r7, #4]
 8001876:	f893 3042 	ldrb.w	r3, [r3, #66]	; 0x42
 800187a:	b2db      	uxtb	r3, r3
 800187c:	2b40      	cmp	r3, #64	; 0x40
 800187e:	d10c      	bne.n	800189a <I2C_ITMasterCplt+0x16e>
 8001880:	687b      	ldr	r3, [r7, #4]
 8001882:	2200      	movs	r2, #0
 8001884:	f883 2042 	strb.w	r2, [r3, #66]	; 0x42
 8001888:	687b      	ldr	r3, [r7, #4]
 800188a:	2200      	movs	r2, #0
 800188c:	f883 2040 	strb.w	r2, [r3, #64]	; 0x40
 8001890:	687b      	ldr	r3, [r7, #4]
 8001892:	6edb      	ldr	r3, [r3, #108]	; 0x6c
 8001894:	6878      	ldr	r0, [r7, #4]
 8001896:	4798      	blx	r3
 8001898:	e00b      	b.n	80018b2 <I2C_ITMasterCplt+0x186>
 800189a:	687b      	ldr	r3, [r7, #4]
 800189c:	2200      	movs	r2, #0
 800189e:	f883 2042 	strb.w	r2, [r3, #66]	; 0x42
 80018a2:	687b      	ldr	r3, [r7, #4]
 80018a4:	2200      	movs	r2, #0
 80018a6:	f883 2040 	strb.w	r2, [r3, #64]	; 0x40
 80018aa:	687b      	ldr	r3, [r7, #4]
 80018ac:	6d9b      	ldr	r3, [r3, #88]	; 0x58
 80018ae:	6878      	ldr	r0, [r7, #4]
 80018b0:	4798      	blx	r3
 80018b2:	bf00      	nop
 80018b4:	3718      	adds	r7, #24
 80018b6:	46bd      	mov	sp, r7
 80018b8:	bd80      	pop	{r7, pc}
 80018ba:	bf00      	nop
 80018bc:	fe00e800 	vcmla.f16	d14, d0, d0[0], #0
 80018c0:	ffff0000 			; <UNDEFINED> instruction: 0xffff0000

080018c4 <I2C_ITSlaveCplt>:
 80018c4:	b580      	push	{r7, lr}
 80018c6:	b086      	sub	sp, #24
 80018c8:	af00      	add	r7, sp, #0
 80018ca:	6078      	str	r0, [r7, #4]
 80018cc:	6039      	str	r1, [r7, #0]
 80018ce:	687b      	ldr	r3, [r7, #4]
 80018d0:	681b      	ldr	r3, [r3, #0]
 80018d2:	681b      	ldr	r3, [r3, #0]
 80018d4:	613b      	str	r3, [r7, #16]
 80018d6:	683b      	ldr	r3, [r7, #0]
 80018d8:	617b      	str	r3, [r7, #20]
 80018da:	687b      	ldr	r3, [r7, #4]
 80018dc:	f893 3041 	ldrb.w	r3, [r3, #65]	; 0x41
 80018e0:	73fb      	strb	r3, [r7, #15]
 80018e2:	687b      	ldr	r3, [r7, #4]
 80018e4:	681b      	ldr	r3, [r3, #0]
 80018e6:	2220      	movs	r2, #32
 80018e8:	61da      	str	r2, [r3, #28]
 80018ea:	7bfb      	ldrb	r3, [r7, #15]
 80018ec:	2b21      	cmp	r3, #33	; 0x21
 80018ee:	d002      	beq.n	80018f6 <I2C_ITSlaveCplt+0x32>
 80018f0:	7bfb      	ldrb	r3, [r7, #15]
 80018f2:	2b29      	cmp	r3, #41	; 0x29
 80018f4:	d108      	bne.n	8001908 <I2C_ITSlaveCplt+0x44>
 80018f6:	f248 0101 	movw	r1, #32769	; 0x8001
 80018fa:	6878      	ldr	r0, [r7, #4]
 80018fc:	f000 fb18 	bl	8001f30 <I2C_Disable_IRQ>
 8001900:	687b      	ldr	r3, [r7, #4]
 8001902:	2221      	movs	r2, #33	; 0x21
 8001904:	631a      	str	r2, [r3, #48]	; 0x30
 8001906:	e00d      	b.n	8001924 <I2C_ITSlaveCplt+0x60>
 8001908:	7bfb      	ldrb	r3, [r7, #15]
 800190a:	2b22      	cmp	r3, #34	; 0x22
 800190c:	d002      	beq.n	8001914 <I2C_ITSlaveCplt+0x50>
 800190e:	7bfb      	ldrb	r3, [r7, #15]
 8001910:	2b2a      	cmp	r3, #42	; 0x2a
 8001912:	d107      	bne.n	8001924 <I2C_ITSlaveCplt+0x60>
 8001914:	f248 0102 	movw	r1, #32770	; 0x8002
 8001918:	6878      	ldr	r0, [r7, #4]
 800191a:	f000 fb09 	bl	8001f30 <I2C_Disable_IRQ>
 800191e:	687b      	ldr	r3, [r7, #4]
 8001920:	2222      	movs	r2, #34	; 0x22
 8001922:	631a      	str	r2, [r3, #48]	; 0x30
 8001924:	687b      	ldr	r3, [r7, #4]
 8001926:	681b      	ldr	r3, [r3, #0]
 8001928:	687a      	ldr	r2, [r7, #4]
 800192a:	6812      	ldr	r2, [r2, #0]
 800192c:	6852      	ldr	r2, [r2, #4]
 800192e:	f442 4200 	orr.w	r2, r2, #32768	; 0x8000
 8001932:	605a      	str	r2, [r3, #4]
 8001934:	687b      	ldr	r3, [r7, #4]
 8001936:	681a      	ldr	r2, [r3, #0]
 8001938:	687b      	ldr	r3, [r7, #4]
 800193a:	681b      	ldr	r3, [r3, #0]
 800193c:	6859      	ldr	r1, [r3, #4]
 800193e:	4b64      	ldr	r3, [pc, #400]	; (8001ad0 <I2C_ITSlaveCplt+0x20c>)
 8001940:	400b      	ands	r3, r1
 8001942:	6053      	str	r3, [r2, #4]
 8001944:	6878      	ldr	r0, [r7, #4]
 8001946:	f000 fa16 	bl	8001d76 <I2C_Flush_TXDR>
 800194a:	693b      	ldr	r3, [r7, #16]
 800194c:	f403 4380 	and.w	r3, r3, #16384	; 0x4000
 8001950:	2b00      	cmp	r3, #0
 8001952:	d013      	beq.n	800197c <I2C_ITSlaveCplt+0xb8>
 8001954:	687b      	ldr	r3, [r7, #4]
 8001956:	681b      	ldr	r3, [r3, #0]
 8001958:	687a      	ldr	r2, [r7, #4]
 800195a:	6812      	ldr	r2, [r2, #0]
 800195c:	6812      	ldr	r2, [r2, #0]
 800195e:	f422 4280 	bic.w	r2, r2, #16384	; 0x4000
 8001962:	601a      	str	r2, [r3, #0]
 8001964:	687b      	ldr	r3, [r7, #4]
 8001966:	6b9b      	ldr	r3, [r3, #56]	; 0x38
 8001968:	2b00      	cmp	r3, #0
 800196a:	d01f      	beq.n	80019ac <I2C_ITSlaveCplt+0xe8>
 800196c:	687b      	ldr	r3, [r7, #4]
 800196e:	6b9b      	ldr	r3, [r3, #56]	; 0x38
 8001970:	681b      	ldr	r3, [r3, #0]
 8001972:	685b      	ldr	r3, [r3, #4]
 8001974:	b29a      	uxth	r2, r3
 8001976:	687b      	ldr	r3, [r7, #4]
 8001978:	855a      	strh	r2, [r3, #42]	; 0x2a
 800197a:	e017      	b.n	80019ac <I2C_ITSlaveCplt+0xe8>
 800197c:	693b      	ldr	r3, [r7, #16]
 800197e:	f403 4300 	and.w	r3, r3, #32768	; 0x8000
 8001982:	2b00      	cmp	r3, #0
 8001984:	d012      	beq.n	80019ac <I2C_ITSlaveCplt+0xe8>
 8001986:	687b      	ldr	r3, [r7, #4]
 8001988:	681b      	ldr	r3, [r3, #0]
 800198a:	687a      	ldr	r2, [r7, #4]
 800198c:	6812      	ldr	r2, [r2, #0]
 800198e:	6812      	ldr	r2, [r2, #0]
 8001990:	f422 4200 	bic.w	r2, r2, #32768	; 0x8000
 8001994:	601a      	str	r2, [r3, #0]
 8001996:	687b      	ldr	r3, [r7, #4]
 8001998:	6bdb      	ldr	r3, [r3, #60]	; 0x3c
 800199a:	2b00      	cmp	r3, #0
 800199c:	d006      	beq.n	80019ac <I2C_ITSlaveCplt+0xe8>
 800199e:	687b      	ldr	r3, [r7, #4]
 80019a0:	6bdb      	ldr	r3, [r3, #60]	; 0x3c
 80019a2:	681b      	ldr	r3, [r3, #0]
 80019a4:	685b      	ldr	r3, [r3, #4]
 80019a6:	b29a      	uxth	r2, r3
 80019a8:	687b      	ldr	r3, [r7, #4]
 80019aa:	855a      	strh	r2, [r3, #42]	; 0x2a
 80019ac:	697b      	ldr	r3, [r7, #20]
 80019ae:	f003 0304 	and.w	r3, r3, #4
 80019b2:	2b00      	cmp	r3, #0
 80019b4:	d020      	beq.n	80019f8 <I2C_ITSlaveCplt+0x134>
 80019b6:	697b      	ldr	r3, [r7, #20]
 80019b8:	f023 0304 	bic.w	r3, r3, #4
 80019bc:	617b      	str	r3, [r7, #20]
 80019be:	687b      	ldr	r3, [r7, #4]
 80019c0:	6a5b      	ldr	r3, [r3, #36]	; 0x24
 80019c2:	687a      	ldr	r2, [r7, #4]
 80019c4:	6812      	ldr	r2, [r2, #0]
 80019c6:	6a52      	ldr	r2, [r2, #36]	; 0x24
 80019c8:	b2d2      	uxtb	r2, r2
 80019ca:	701a      	strb	r2, [r3, #0]
 80019cc:	687b      	ldr	r3, [r7, #4]
 80019ce:	6a5b      	ldr	r3, [r3, #36]	; 0x24
 80019d0:	1c5a      	adds	r2, r3, #1
 80019d2:	687b      	ldr	r3, [r7, #4]
 80019d4:	625a      	str	r2, [r3, #36]	; 0x24
 80019d6:	687b      	ldr	r3, [r7, #4]
 80019d8:	8d1b      	ldrh	r3, [r3, #40]	; 0x28
 80019da:	2b00      	cmp	r3, #0
 80019dc:	d00c      	beq.n	80019f8 <I2C_ITSlaveCplt+0x134>
 80019de:	687b      	ldr	r3, [r7, #4]
 80019e0:	8d1b      	ldrh	r3, [r3, #40]	; 0x28
 80019e2:	3b01      	subs	r3, #1
 80019e4:	b29a      	uxth	r2, r3
 80019e6:	687b      	ldr	r3, [r7, #4]
 80019e8:	851a      	strh	r2, [r3, #40]	; 0x28
 80019ea:	687b      	ldr	r3, [r7, #4]
 80019ec:	8d5b      	ldrh	r3, [r3, #42]	; 0x2a
 80019ee:	b29b      	uxth	r3, r3
 80019f0:	3b01      	subs	r3, #1
 80019f2:	b29a      	uxth	r2, r3
 80019f4:	687b      	ldr	r3, [r7, #4]
 80019f6:	855a      	strh	r2, [r3, #42]	; 0x2a
 80019f8:	687b      	ldr	r3, [r7, #4]
 80019fa:	8d5b      	ldrh	r3, [r3, #42]	; 0x2a
 80019fc:	b29b      	uxth	r3, r3
 80019fe:	2b00      	cmp	r3, #0
 8001a00:	d005      	beq.n	8001a0e <I2C_ITSlaveCplt+0x14a>
 8001a02:	687b      	ldr	r3, [r7, #4]
 8001a04:	6c5b      	ldr	r3, [r3, #68]	; 0x44
 8001a06:	f043 0204 	orr.w	r2, r3, #4
 8001a0a:	687b      	ldr	r3, [r7, #4]
 8001a0c:	645a      	str	r2, [r3, #68]	; 0x44
 8001a0e:	687b      	ldr	r3, [r7, #4]
 8001a10:	2200      	movs	r2, #0
 8001a12:	f883 2042 	strb.w	r2, [r3, #66]	; 0x42
 8001a16:	687b      	ldr	r3, [r7, #4]
 8001a18:	2200      	movs	r2, #0
 8001a1a:	635a      	str	r2, [r3, #52]	; 0x34
 8001a1c:	687b      	ldr	r3, [r7, #4]
 8001a1e:	6c5b      	ldr	r3, [r3, #68]	; 0x44
 8001a20:	2b00      	cmp	r3, #0
 8001a22:	d010      	beq.n	8001a46 <I2C_ITSlaveCplt+0x182>
 8001a24:	687b      	ldr	r3, [r7, #4]
 8001a26:	6c5b      	ldr	r3, [r3, #68]	; 0x44
 8001a28:	4619      	mov	r1, r3
 8001a2a:	6878      	ldr	r0, [r7, #4]
 8001a2c:	f000 f8aa 	bl	8001b84 <I2C_ITError>
 8001a30:	687b      	ldr	r3, [r7, #4]
 8001a32:	f893 3041 	ldrb.w	r3, [r3, #65]	; 0x41
 8001a36:	b2db      	uxtb	r3, r3
 8001a38:	2b28      	cmp	r3, #40	; 0x28
 8001a3a:	d144      	bne.n	8001ac6 <I2C_ITSlaveCplt+0x202>
 8001a3c:	6979      	ldr	r1, [r7, #20]
 8001a3e:	6878      	ldr	r0, [r7, #4]
 8001a40:	f000 f84a 	bl	8001ad8 <I2C_ITListenCplt>
 8001a44:	e03f      	b.n	8001ac6 <I2C_ITSlaveCplt+0x202>
 8001a46:	687b      	ldr	r3, [r7, #4]
 8001a48:	6adb      	ldr	r3, [r3, #44]	; 0x2c
 8001a4a:	f513 3f80 	cmn.w	r3, #65536	; 0x10000
 8001a4e:	d015      	beq.n	8001a7c <I2C_ITSlaveCplt+0x1b8>
 8001a50:	6878      	ldr	r0, [r7, #4]
 8001a52:	f7ff fe0d 	bl	8001670 <I2C_ITSlaveSeqCplt>
 8001a56:	687b      	ldr	r3, [r7, #4]
 8001a58:	4a1e      	ldr	r2, [pc, #120]	; (8001ad4 <I2C_ITSlaveCplt+0x210>)
 8001a5a:	62da      	str	r2, [r3, #44]	; 0x2c
 8001a5c:	687b      	ldr	r3, [r7, #4]
 8001a5e:	2220      	movs	r2, #32
 8001a60:	f883 2041 	strb.w	r2, [r3, #65]	; 0x41
 8001a64:	687b      	ldr	r3, [r7, #4]
 8001a66:	2200      	movs	r2, #0
 8001a68:	631a      	str	r2, [r3, #48]	; 0x30
 8001a6a:	687b      	ldr	r3, [r7, #4]
 8001a6c:	2200      	movs	r2, #0
 8001a6e:	f883 2040 	strb.w	r2, [r3, #64]	; 0x40
 8001a72:	687b      	ldr	r3, [r7, #4]
 8001a74:	6e5b      	ldr	r3, [r3, #100]	; 0x64
 8001a76:	6878      	ldr	r0, [r7, #4]
 8001a78:	4798      	blx	r3
 8001a7a:	e024      	b.n	8001ac6 <I2C_ITSlaveCplt+0x202>
 8001a7c:	687b      	ldr	r3, [r7, #4]
 8001a7e:	f893 3041 	ldrb.w	r3, [r3, #65]	; 0x41
 8001a82:	b2db      	uxtb	r3, r3
 8001a84:	2b22      	cmp	r3, #34	; 0x22
 8001a86:	d10f      	bne.n	8001aa8 <I2C_ITSlaveCplt+0x1e4>
 8001a88:	687b      	ldr	r3, [r7, #4]
 8001a8a:	2220      	movs	r2, #32
 8001a8c:	f883 2041 	strb.w	r2, [r3, #65]	; 0x41
 8001a90:	687b      	ldr	r3, [r7, #4]
 8001a92:	2200      	movs	r2, #0
 8001a94:	631a      	str	r2, [r3, #48]	; 0x30
 8001a96:	687b      	ldr	r3, [r7, #4]
 8001a98:	2200      	movs	r2, #0
 8001a9a:	f883 2040 	strb.w	r2, [r3, #64]	; 0x40
 8001a9e:	687b      	ldr	r3, [r7, #4]
 8001aa0:	6e1b      	ldr	r3, [r3, #96]	; 0x60
 8001aa2:	6878      	ldr	r0, [r7, #4]
 8001aa4:	4798      	blx	r3
 8001aa6:	e00e      	b.n	8001ac6 <I2C_ITSlaveCplt+0x202>
 8001aa8:	687b      	ldr	r3, [r7, #4]
 8001aaa:	2220      	movs	r2, #32
 8001aac:	f883 2041 	strb.w	r2, [r3, #65]	; 0x41
 8001ab0:	687b      	ldr	r3, [r7, #4]
 8001ab2:	2200      	movs	r2, #0
 8001ab4:	631a      	str	r2, [r3, #48]	; 0x30
 8001ab6:	687b      	ldr	r3, [r7, #4]
 8001ab8:	2200      	movs	r2, #0
 8001aba:	f883 2040 	strb.w	r2, [r3, #64]	; 0x40
 8001abe:	687b      	ldr	r3, [r7, #4]
 8001ac0:	6ddb      	ldr	r3, [r3, #92]	; 0x5c
 8001ac2:	6878      	ldr	r0, [r7, #4]
 8001ac4:	4798      	blx	r3
 8001ac6:	bf00      	nop
 8001ac8:	3718      	adds	r7, #24
 8001aca:	46bd      	mov	sp, r7
 8001acc:	bd80      	pop	{r7, pc}
 8001ace:	bf00      	nop
 8001ad0:	fe00e800 	vcmla.f16	d14, d0, d0[0], #0
 8001ad4:	ffff0000 			; <UNDEFINED> instruction: 0xffff0000

08001ad8 <I2C_ITListenCplt>:
 8001ad8:	b580      	push	{r7, lr}
 8001ada:	b082      	sub	sp, #8
 8001adc:	af00      	add	r7, sp, #0
 8001ade:	6078      	str	r0, [r7, #4]
 8001ae0:	6039      	str	r1, [r7, #0]
 8001ae2:	687b      	ldr	r3, [r7, #4]
 8001ae4:	4a26      	ldr	r2, [pc, #152]	; (8001b80 <I2C_ITListenCplt+0xa8>)
 8001ae6:	62da      	str	r2, [r3, #44]	; 0x2c
 8001ae8:	687b      	ldr	r3, [r7, #4]
 8001aea:	2200      	movs	r2, #0
 8001aec:	631a      	str	r2, [r3, #48]	; 0x30
 8001aee:	687b      	ldr	r3, [r7, #4]
 8001af0:	2220      	movs	r2, #32
 8001af2:	f883 2041 	strb.w	r2, [r3, #65]	; 0x41
 8001af6:	687b      	ldr	r3, [r7, #4]
 8001af8:	2200      	movs	r2, #0
 8001afa:	f883 2042 	strb.w	r2, [r3, #66]	; 0x42
 8001afe:	687b      	ldr	r3, [r7, #4]
 8001b00:	2200      	movs	r2, #0
 8001b02:	635a      	str	r2, [r3, #52]	; 0x34
 8001b04:	683b      	ldr	r3, [r7, #0]
 8001b06:	f003 0304 	and.w	r3, r3, #4
 8001b0a:	2b00      	cmp	r3, #0
 8001b0c:	d022      	beq.n	8001b54 <I2C_ITListenCplt+0x7c>
 8001b0e:	687b      	ldr	r3, [r7, #4]
 8001b10:	6a5b      	ldr	r3, [r3, #36]	; 0x24
 8001b12:	687a      	ldr	r2, [r7, #4]
 8001b14:	6812      	ldr	r2, [r2, #0]
 8001b16:	6a52      	ldr	r2, [r2, #36]	; 0x24
 8001b18:	b2d2      	uxtb	r2, r2
 8001b1a:	701a      	strb	r2, [r3, #0]
 8001b1c:	687b      	ldr	r3, [r7, #4]
 8001b1e:	6a5b      	ldr	r3, [r3, #36]	; 0x24
 8001b20:	1c5a      	adds	r2, r3, #1
 8001b22:	687b      	ldr	r3, [r7, #4]
 8001b24:	625a      	str	r2, [r3, #36]	; 0x24
 8001b26:	687b      	ldr	r3, [r7, #4]
 8001b28:	8d1b      	ldrh	r3, [r3, #40]	; 0x28
 8001b2a:	2b00      	cmp	r3, #0
 8001b2c:	d012      	beq.n	8001b54 <I2C_ITListenCplt+0x7c>
 8001b2e:	687b      	ldr	r3, [r7, #4]
 8001b30:	8d1b      	ldrh	r3, [r3, #40]	; 0x28
 8001b32:	3b01      	subs	r3, #1
 8001b34:	b29a      	uxth	r2, r3
 8001b36:	687b      	ldr	r3, [r7, #4]
 8001b38:	851a      	strh	r2, [r3, #40]	; 0x28
 8001b3a:	687b      	ldr	r3, [r7, #4]
 8001b3c:	8d5b      	ldrh	r3, [r3, #42]	; 0x2a
 8001b3e:	b29b      	uxth	r3, r3
 8001b40:	3b01      	subs	r3, #1
 8001b42:	b29a      	uxth	r2, r3
 8001b44:	687b      	ldr	r3, [r7, #4]
 8001b46:	855a      	strh	r2, [r3, #42]	; 0x2a
 8001b48:	687b      	ldr	r3, [r7, #4]
 8001b4a:	6c5b      	ldr	r3, [r3, #68]	; 0x44
 8001b4c:	f043 0204 	orr.w	r2, r3, #4
 8001b50:	687b      	ldr	r3, [r7, #4]
 8001b52:	645a      	str	r2, [r3, #68]	; 0x44
 8001b54:	f248 0103 	movw	r1, #32771	; 0x8003
 8001b58:	6878      	ldr	r0, [r7, #4]
 8001b5a:	f000 f9e9 	bl	8001f30 <I2C_Disable_IRQ>
 8001b5e:	687b      	ldr	r3, [r7, #4]
 8001b60:	681b      	ldr	r3, [r3, #0]
 8001b62:	2210      	movs	r2, #16
 8001b64:	61da      	str	r2, [r3, #28]
 8001b66:	687b      	ldr	r3, [r7, #4]
 8001b68:	2200      	movs	r2, #0
 8001b6a:	f883 2040 	strb.w	r2, [r3, #64]	; 0x40
 8001b6e:	687b      	ldr	r3, [r7, #4]
 8001b70:	6e5b      	ldr	r3, [r3, #100]	; 0x64
 8001b72:	6878      	ldr	r0, [r7, #4]
 8001b74:	4798      	blx	r3
 8001b76:	bf00      	nop
 8001b78:	3708      	adds	r7, #8
 8001b7a:	46bd      	mov	sp, r7
 8001b7c:	bd80      	pop	{r7, pc}
 8001b7e:	bf00      	nop
 8001b80:	ffff0000 			; <UNDEFINED> instruction: 0xffff0000

08001b84 <I2C_ITError>:
 8001b84:	b580      	push	{r7, lr}
 8001b86:	b084      	sub	sp, #16
 8001b88:	af00      	add	r7, sp, #0
 8001b8a:	6078      	str	r0, [r7, #4]
 8001b8c:	6039      	str	r1, [r7, #0]
 8001b8e:	687b      	ldr	r3, [r7, #4]
 8001b90:	f893 3041 	ldrb.w	r3, [r3, #65]	; 0x41
 8001b94:	73fb      	strb	r3, [r7, #15]
 8001b96:	687b      	ldr	r3, [r7, #4]
 8001b98:	2200      	movs	r2, #0
 8001b9a:	f883 2042 	strb.w	r2, [r3, #66]	; 0x42
 8001b9e:	687b      	ldr	r3, [r7, #4]
 8001ba0:	4a5d      	ldr	r2, [pc, #372]	; (8001d18 <I2C_ITError+0x194>)
 8001ba2:	62da      	str	r2, [r3, #44]	; 0x2c
 8001ba4:	687b      	ldr	r3, [r7, #4]
 8001ba6:	2200      	movs	r2, #0
 8001ba8:	855a      	strh	r2, [r3, #42]	; 0x2a
 8001baa:	687b      	ldr	r3, [r7, #4]
 8001bac:	6c5a      	ldr	r2, [r3, #68]	; 0x44
 8001bae:	683b      	ldr	r3, [r7, #0]
 8001bb0:	431a      	orrs	r2, r3
 8001bb2:	687b      	ldr	r3, [r7, #4]
 8001bb4:	645a      	str	r2, [r3, #68]	; 0x44
 8001bb6:	7bfb      	ldrb	r3, [r7, #15]
 8001bb8:	2b28      	cmp	r3, #40	; 0x28
 8001bba:	d005      	beq.n	8001bc8 <I2C_ITError+0x44>
 8001bbc:	7bfb      	ldrb	r3, [r7, #15]
 8001bbe:	2b29      	cmp	r3, #41	; 0x29
 8001bc0:	d002      	beq.n	8001bc8 <I2C_ITError+0x44>
 8001bc2:	7bfb      	ldrb	r3, [r7, #15]
 8001bc4:	2b2a      	cmp	r3, #42	; 0x2a
 8001bc6:	d10b      	bne.n	8001be0 <I2C_ITError+0x5c>
 8001bc8:	2103      	movs	r1, #3
 8001bca:	6878      	ldr	r0, [r7, #4]
 8001bcc:	f000 f9b0 	bl	8001f30 <I2C_Disable_IRQ>
 8001bd0:	687b      	ldr	r3, [r7, #4]
 8001bd2:	2228      	movs	r2, #40	; 0x28
 8001bd4:	f883 2041 	strb.w	r2, [r3, #65]	; 0x41
 8001bd8:	687b      	ldr	r3, [r7, #4]
 8001bda:	4a50      	ldr	r2, [pc, #320]	; (8001d1c <I2C_ITError+0x198>)
 8001bdc:	635a      	str	r2, [r3, #52]	; 0x34
 8001bde:	e011      	b.n	8001c04 <I2C_ITError+0x80>
 8001be0:	f248 0103 	movw	r1, #32771	; 0x8003
 8001be4:	6878      	ldr	r0, [r7, #4]
 8001be6:	f000 f9a3 	bl	8001f30 <I2C_Disable_IRQ>
 8001bea:	687b      	ldr	r3, [r7, #4]
 8001bec:	f893 3041 	ldrb.w	r3, [r3, #65]	; 0x41
 8001bf0:	b2db      	uxtb	r3, r3
 8001bf2:	2b60      	cmp	r3, #96	; 0x60
 8001bf4:	d003      	beq.n	8001bfe <I2C_ITError+0x7a>
 8001bf6:	687b      	ldr	r3, [r7, #4]
 8001bf8:	2220      	movs	r2, #32
 8001bfa:	f883 2041 	strb.w	r2, [r3, #65]	; 0x41
 8001bfe:	687b      	ldr	r3, [r7, #4]
 8001c00:	2200      	movs	r2, #0
 8001c02:	635a      	str	r2, [r3, #52]	; 0x34
 8001c04:	687b      	ldr	r3, [r7, #4]
 8001c06:	6b1b      	ldr	r3, [r3, #48]	; 0x30
 8001c08:	60bb      	str	r3, [r7, #8]
 8001c0a:	687b      	ldr	r3, [r7, #4]
 8001c0c:	6b9b      	ldr	r3, [r3, #56]	; 0x38
 8001c0e:	2b00      	cmp	r3, #0
 8001c10:	d039      	beq.n	8001c86 <I2C_ITError+0x102>
 8001c12:	68bb      	ldr	r3, [r7, #8]
 8001c14:	2b11      	cmp	r3, #17
 8001c16:	d002      	beq.n	8001c1e <I2C_ITError+0x9a>
 8001c18:	68bb      	ldr	r3, [r7, #8]
 8001c1a:	2b21      	cmp	r3, #33	; 0x21
 8001c1c:	d133      	bne.n	8001c86 <I2C_ITError+0x102>
 8001c1e:	687b      	ldr	r3, [r7, #4]
 8001c20:	681b      	ldr	r3, [r3, #0]
 8001c22:	681b      	ldr	r3, [r3, #0]
 8001c24:	f403 4380 	and.w	r3, r3, #16384	; 0x4000
 8001c28:	f5b3 4f80 	cmp.w	r3, #16384	; 0x4000
 8001c2c:	d107      	bne.n	8001c3e <I2C_ITError+0xba>
 8001c2e:	687b      	ldr	r3, [r7, #4]
 8001c30:	681b      	ldr	r3, [r3, #0]
 8001c32:	687a      	ldr	r2, [r7, #4]
 8001c34:	6812      	ldr	r2, [r2, #0]
 8001c36:	6812      	ldr	r2, [r2, #0]
 8001c38:	f422 4280 	bic.w	r2, r2, #16384	; 0x4000
 8001c3c:	601a      	str	r2, [r3, #0]
 8001c3e:	687b      	ldr	r3, [r7, #4]
 8001c40:	6b9b      	ldr	r3, [r3, #56]	; 0x38
 8001c42:	4618      	mov	r0, r3
 8001c44:	f7fe fc2c 	bl	80004a0 <HAL_DMA_GetState>
 8001c48:	4603      	mov	r3, r0
 8001c4a:	2b01      	cmp	r3, #1
 8001c4c:	d017      	beq.n	8001c7e <I2C_ITError+0xfa>
 8001c4e:	687b      	ldr	r3, [r7, #4]
 8001c50:	6b9b      	ldr	r3, [r3, #56]	; 0x38
 8001c52:	4a33      	ldr	r2, [pc, #204]	; (8001d20 <I2C_ITError+0x19c>)
 8001c54:	639a      	str	r2, [r3, #56]	; 0x38
 8001c56:	687b      	ldr	r3, [r7, #4]
 8001c58:	2200      	movs	r2, #0
 8001c5a:	f883 2040 	strb.w	r2, [r3, #64]	; 0x40
 8001c5e:	687b      	ldr	r3, [r7, #4]
 8001c60:	6b9b      	ldr	r3, [r3, #56]	; 0x38
 8001c62:	4618      	mov	r0, r3
 8001c64:	f7fe fbbd 	bl	80003e2 <HAL_DMA_Abort_IT>
 8001c68:	4603      	mov	r3, r0
 8001c6a:	2b00      	cmp	r3, #0
 8001c6c:	d04d      	beq.n	8001d0a <I2C_ITError+0x186>
 8001c6e:	687b      	ldr	r3, [r7, #4]
 8001c70:	6b9b      	ldr	r3, [r3, #56]	; 0x38
 8001c72:	6b9b      	ldr	r3, [r3, #56]	; 0x38
 8001c74:	687a      	ldr	r2, [r7, #4]
 8001c76:	6b92      	ldr	r2, [r2, #56]	; 0x38
 8001c78:	4610      	mov	r0, r2
 8001c7a:	4798      	blx	r3
 8001c7c:	e045      	b.n	8001d0a <I2C_ITError+0x186>
 8001c7e:	6878      	ldr	r0, [r7, #4]
 8001c80:	f000 f850 	bl	8001d24 <I2C_TreatErrorCallback>
 8001c84:	e041      	b.n	8001d0a <I2C_ITError+0x186>
 8001c86:	687b      	ldr	r3, [r7, #4]
 8001c88:	6bdb      	ldr	r3, [r3, #60]	; 0x3c
 8001c8a:	2b00      	cmp	r3, #0
 8001c8c:	d039      	beq.n	8001d02 <I2C_ITError+0x17e>
 8001c8e:	68bb      	ldr	r3, [r7, #8]
 8001c90:	2b12      	cmp	r3, #18
 8001c92:	d002      	beq.n	8001c9a <I2C_ITError+0x116>
 8001c94:	68bb      	ldr	r3, [r7, #8]
 8001c96:	2b22      	cmp	r3, #34	; 0x22
 8001c98:	d133      	bne.n	8001d02 <I2C_ITError+0x17e>
 8001c9a:	687b      	ldr	r3, [r7, #4]
 8001c9c:	681b      	ldr	r3, [r3, #0]
 8001c9e:	681b      	ldr	r3, [r3, #0]
 8001ca0:	f403 4300 	and.w	r3, r3, #32768	; 0x8000
 8001ca4:	f5b3 4f00 	cmp.w	r3, #32768	; 0x8000
 8001ca8:	d107      	bne.n	8001cba <I2C_ITError+0x136>
 8001caa:	687b      	ldr	r3, [r7, #4]
 8001cac:	681b      	ldr	r3, [r3, #0]
 8001cae:	687a      	ldr	r2, [r7, #4]
 8001cb0:	6812      	ldr	r2, [r2, #0]
 8001cb2:	6812      	ldr	r2, [r2, #0]
 8001cb4:	f422 4200 	bic.w	r2, r2, #32768	; 0x8000
 8001cb8:	601a      	str	r2, [r3, #0]
 8001cba:	687b      	ldr	r3, [r7, #4]
 8001cbc:	6bdb      	ldr	r3, [r3, #60]	; 0x3c
 8001cbe:	4618      	mov	r0, r3
 8001cc0:	f7fe fbee 	bl	80004a0 <HAL_DMA_GetState>
 8001cc4:	4603      	mov	r3, r0
 8001cc6:	2b01      	cmp	r3, #1
 8001cc8:	d017      	beq.n	8001cfa <I2C_ITError+0x176>
 8001cca:	687b      	ldr	r3, [r7, #4]
 8001ccc:	6bdb      	ldr	r3, [r3, #60]	; 0x3c
 8001cce:	4a14      	ldr	r2, [pc, #80]	; (8001d20 <I2C_ITError+0x19c>)
 8001cd0:	639a      	str	r2, [r3, #56]	; 0x38
 8001cd2:	687b      	ldr	r3, [r7, #4]
 8001cd4:	2200      	movs	r2, #0
 8001cd6:	f883 2040 	strb.w	r2, [r3, #64]	; 0x40
 8001cda:	687b      	ldr	r3, [r7, #4]
 8001cdc:	6bdb      	ldr	r3, [r3, #60]	; 0x3c
 8001cde:	4618      	mov	r0, r3
 8001ce0:	f7fe fb7f 	bl	80003e2 <HAL_DMA_Abort_IT>
 8001ce4:	4603      	mov	r3, r0
 8001ce6:	2b00      	cmp	r3, #0
 8001ce8:	d011      	beq.n	8001d0e <I2C_ITError+0x18a>
 8001cea:	687b      	ldr	r3, [r7, #4]
 8001cec:	6bdb      	ldr	r3, [r3, #60]	; 0x3c
 8001cee:	6b9b      	ldr	r3, [r3, #56]	; 0x38
 8001cf0:	687a      	ldr	r2, [r7, #4]
 8001cf2:	6bd2      	ldr	r2, [r2, #60]	; 0x3c
 8001cf4:	4610      	mov	r0, r2
 8001cf6:	4798      	blx	r3
 8001cf8:	e009      	b.n	8001d0e <I2C_ITError+0x18a>
 8001cfa:	6878      	ldr	r0, [r7, #4]
 8001cfc:	f000 f812 	bl	8001d24 <I2C_TreatErrorCallback>
 8001d00:	e005      	b.n	8001d0e <I2C_ITError+0x18a>
 8001d02:	6878      	ldr	r0, [r7, #4]
 8001d04:	f000 f80e 	bl	8001d24 <I2C_TreatErrorCallback>
 8001d08:	e002      	b.n	8001d10 <I2C_ITError+0x18c>
 8001d0a:	bf00      	nop
 8001d0c:	e000      	b.n	8001d10 <I2C_ITError+0x18c>
 8001d0e:	bf00      	nop
 8001d10:	bf00      	nop
 8001d12:	3710      	adds	r7, #16
 8001d14:	46bd      	mov	sp, r7
 8001d16:	bd80      	pop	{r7, pc}
 8001d18:	ffff0000 			; <UNDEFINED> instruction: 0xffff0000
 8001d1c:	08000f79 	stmdaeq	r0, {r0, r3, r4, r5, r6, r8, r9, sl, fp}
 8001d20:	08001dbf 	stmdaeq	r0, {r0, r1, r2, r3, r4, r5, r7, r8, sl, fp, ip}

08001d24 <I2C_TreatErrorCallback>:
 8001d24:	b580      	push	{r7, lr}
 8001d26:	b082      	sub	sp, #8
 8001d28:	af00      	add	r7, sp, #0
 8001d2a:	6078      	str	r0, [r7, #4]
 8001d2c:	687b      	ldr	r3, [r7, #4]
 8001d2e:	f893 3041 	ldrb.w	r3, [r3, #65]	; 0x41
 8001d32:	b2db      	uxtb	r3, r3
 8001d34:	2b60      	cmp	r3, #96	; 0x60
 8001d36:	d10f      	bne.n	8001d58 <I2C_TreatErrorCallback+0x34>
 8001d38:	687b      	ldr	r3, [r7, #4]
 8001d3a:	2220      	movs	r2, #32
 8001d3c:	f883 2041 	strb.w	r2, [r3, #65]	; 0x41
 8001d40:	687b      	ldr	r3, [r7, #4]
 8001d42:	2200      	movs	r2, #0
 8001d44:	631a      	str	r2, [r3, #48]	; 0x30
 8001d46:	687b      	ldr	r3, [r7, #4]
 8001d48:	2200      	movs	r2, #0
 8001d4a:	f883 2040 	strb.w	r2, [r3, #64]	; 0x40
 8001d4e:	687b      	ldr	r3, [r7, #4]
 8001d50:	6f5b      	ldr	r3, [r3, #116]	; 0x74
 8001d52:	6878      	ldr	r0, [r7, #4]
 8001d54:	4798      	blx	r3
 8001d56:	e00a      	b.n	8001d6e <I2C_TreatErrorCallback+0x4a>
 8001d58:	687b      	ldr	r3, [r7, #4]
 8001d5a:	2200      	movs	r2, #0
 8001d5c:	631a      	str	r2, [r3, #48]	; 0x30
 8001d5e:	687b      	ldr	r3, [r7, #4]
 8001d60:	2200      	movs	r2, #0
 8001d62:	f883 2040 	strb.w	r2, [r3, #64]	; 0x40
 8001d66:	687b      	ldr	r3, [r7, #4]
 8001d68:	6f1b      	ldr	r3, [r3, #112]	; 0x70
 8001d6a:	6878      	ldr	r0, [r7, #4]
 8001d6c:	4798      	blx	r3
 8001d6e:	bf00      	nop
 8001d70:	3708      	adds	r7, #8
 8001d72:	46bd      	mov	sp, r7
 8001d74:	bd80      	pop	{r7, pc}

08001d76 <I2C_Flush_TXDR>:
 8001d76:	b480      	push	{r7}
 8001d78:	b083      	sub	sp, #12
 8001d7a:	af00      	add	r7, sp, #0
 8001d7c:	6078      	str	r0, [r7, #4]
 8001d7e:	687b      	ldr	r3, [r7, #4]
 8001d80:	681b      	ldr	r3, [r3, #0]
 8001d82:	699b      	ldr	r3, [r3, #24]
 8001d84:	f003 0302 	and.w	r3, r3, #2
 8001d88:	2b02      	cmp	r3, #2
 8001d8a:	d103      	bne.n	8001d94 <I2C_Flush_TXDR+0x1e>
 8001d8c:	687b      	ldr	r3, [r7, #4]
 8001d8e:	681b      	ldr	r3, [r3, #0]
 8001d90:	2200      	movs	r2, #0
 8001d92:	629a      	str	r2, [r3, #40]	; 0x28
 8001d94:	687b      	ldr	r3, [r7, #4]
 8001d96:	681b      	ldr	r3, [r3, #0]
 8001d98:	699b      	ldr	r3, [r3, #24]
 8001d9a:	f003 0301 	and.w	r3, r3, #1
 8001d9e:	2b01      	cmp	r3, #1
 8001da0:	d007      	beq.n	8001db2 <I2C_Flush_TXDR+0x3c>
 8001da2:	687b      	ldr	r3, [r7, #4]
 8001da4:	681b      	ldr	r3, [r3, #0]
 8001da6:	687a      	ldr	r2, [r7, #4]
 8001da8:	6812      	ldr	r2, [r2, #0]
 8001daa:	6992      	ldr	r2, [r2, #24]
 8001dac:	f042 0201 	orr.w	r2, r2, #1
 8001db0:	619a      	str	r2, [r3, #24]
 8001db2:	bf00      	nop
 8001db4:	370c      	adds	r7, #12
 8001db6:	46bd      	mov	sp, r7
 8001db8:	f85d 7b04 	ldr.w	r7, [sp], #4
 8001dbc:	4770      	bx	lr

08001dbe <I2C_DMAAbort>:
 8001dbe:	b580      	push	{r7, lr}
 8001dc0:	b084      	sub	sp, #16
 8001dc2:	af00      	add	r7, sp, #0
 8001dc4:	6078      	str	r0, [r7, #4]
 8001dc6:	687b      	ldr	r3, [r7, #4]
 8001dc8:	6a9b      	ldr	r3, [r3, #40]	; 0x28
 8001dca:	60fb      	str	r3, [r7, #12]
 8001dcc:	68fb      	ldr	r3, [r7, #12]
 8001dce:	6b9b      	ldr	r3, [r3, #56]	; 0x38
 8001dd0:	2b00      	cmp	r3, #0
 8001dd2:	d003      	beq.n	8001ddc <I2C_DMAAbort+0x1e>
 8001dd4:	68fb      	ldr	r3, [r7, #12]
 8001dd6:	6b9b      	ldr	r3, [r3, #56]	; 0x38
 8001dd8:	2200      	movs	r2, #0
 8001dda:	639a      	str	r2, [r3, #56]	; 0x38
 8001ddc:	68fb      	ldr	r3, [r7, #12]
 8001dde:	6bdb      	ldr	r3, [r3, #60]	; 0x3c
 8001de0:	2b00      	cmp	r3, #0
 8001de2:	d003      	beq.n	8001dec <I2C_DMAAbort+0x2e>
 8001de4:	68fb      	ldr	r3, [r7, #12]
 8001de6:	6bdb      	ldr	r3, [r3, #60]	; 0x3c
 8001de8:	2200      	movs	r2, #0
 8001dea:	639a      	str	r2, [r3, #56]	; 0x38
 8001dec:	68f8      	ldr	r0, [r7, #12]
 8001dee:	f7ff ff99 	bl	8001d24 <I2C_TreatErrorCallback>
 8001df2:	bf00      	nop
 8001df4:	3710      	adds	r7, #16
 8001df6:	46bd      	mov	sp, r7
 8001df8:	bd80      	pop	{r7, pc}
	...

08001dfc <I2C_TransferConfig>:
 8001dfc:	b480      	push	{r7}
 8001dfe:	b087      	sub	sp, #28
 8001e00:	af00      	add	r7, sp, #0
 8001e02:	60f8      	str	r0, [r7, #12]
 8001e04:	607b      	str	r3, [r7, #4]
 8001e06:	460b      	mov	r3, r1
 8001e08:	817b      	strh	r3, [r7, #10]
 8001e0a:	4613      	mov	r3, r2
 8001e0c:	727b      	strb	r3, [r7, #9]
 8001e0e:	897b      	ldrh	r3, [r7, #10]
 8001e10:	f3c3 0209 	ubfx	r2, r3, #0, #10
 8001e14:	7a7b      	ldrb	r3, [r7, #9]
 8001e16:	041b      	lsls	r3, r3, #16
 8001e18:	f403 037f 	and.w	r3, r3, #16711680	; 0xff0000
 8001e1c:	431a      	orrs	r2, r3
 8001e1e:	687b      	ldr	r3, [r7, #4]
 8001e20:	431a      	orrs	r2, r3
 8001e22:	6a3b      	ldr	r3, [r7, #32]
 8001e24:	4313      	orrs	r3, r2
 8001e26:	f023 4300 	bic.w	r3, r3, #2147483648	; 0x80000000
 8001e2a:	617b      	str	r3, [r7, #20]
 8001e2c:	68fb      	ldr	r3, [r7, #12]
 8001e2e:	681a      	ldr	r2, [r3, #0]
 8001e30:	68fb      	ldr	r3, [r7, #12]
 8001e32:	681b      	ldr	r3, [r3, #0]
 8001e34:	6859      	ldr	r1, [r3, #4]
 8001e36:	6a3b      	ldr	r3, [r7, #32]
 8001e38:	0d5b      	lsrs	r3, r3, #21
 8001e3a:	f403 6080 	and.w	r0, r3, #1024	; 0x400
 8001e3e:	4b06      	ldr	r3, [pc, #24]	; (8001e58 <I2C_TransferConfig+0x5c>)
 8001e40:	4303      	orrs	r3, r0
 8001e42:	43db      	mvns	r3, r3
 8001e44:	4019      	ands	r1, r3
 8001e46:	697b      	ldr	r3, [r7, #20]
 8001e48:	430b      	orrs	r3, r1
 8001e4a:	6053      	str	r3, [r2, #4]
 8001e4c:	bf00      	nop
 8001e4e:	371c      	adds	r7, #28
 8001e50:	46bd      	mov	sp, r7
 8001e52:	f85d 7b04 	ldr.w	r7, [sp], #4
 8001e56:	4770      	bx	lr
 8001e58:	03ff63ff 	mvnseq	r6, #-67108861	; 0xfc000003

08001e5c <I2C_Enable_IRQ>:
 8001e5c:	b480      	push	{r7}
 8001e5e:	b085      	sub	sp, #20
 8001e60:	af00      	add	r7, sp, #0
 8001e62:	6078      	str	r0, [r7, #4]
 8001e64:	460b      	mov	r3, r1
 8001e66:	807b      	strh	r3, [r7, #2]
 8001e68:	2300      	movs	r3, #0
 8001e6a:	60fb      	str	r3, [r7, #12]
 8001e6c:	687b      	ldr	r3, [r7, #4]
 8001e6e:	6b5b      	ldr	r3, [r3, #52]	; 0x34
 8001e70:	4a2d      	ldr	r2, [pc, #180]	; (8001f28 <I2C_Enable_IRQ+0xcc>)
 8001e72:	4293      	cmp	r3, r2
 8001e74:	d004      	beq.n	8001e80 <I2C_Enable_IRQ+0x24>
 8001e76:	687b      	ldr	r3, [r7, #4]
 8001e78:	6b5b      	ldr	r3, [r3, #52]	; 0x34
 8001e7a:	4a2c      	ldr	r2, [pc, #176]	; (8001f2c <I2C_Enable_IRQ+0xd0>)
 8001e7c:	4293      	cmp	r3, r2
 8001e7e:	d11d      	bne.n	8001ebc <I2C_Enable_IRQ+0x60>
 8001e80:	f9b7 3002 	ldrsh.w	r3, [r7, #2]
 8001e84:	2b00      	cmp	r3, #0
 8001e86:	da03      	bge.n	8001e90 <I2C_Enable_IRQ+0x34>
 8001e88:	68fb      	ldr	r3, [r7, #12]
 8001e8a:	f043 03b8 	orr.w	r3, r3, #184	; 0xb8
 8001e8e:	60fb      	str	r3, [r7, #12]
 8001e90:	887b      	ldrh	r3, [r7, #2]
 8001e92:	2b10      	cmp	r3, #16
 8001e94:	d103      	bne.n	8001e9e <I2C_Enable_IRQ+0x42>
 8001e96:	68fb      	ldr	r3, [r7, #12]
 8001e98:	f043 0390 	orr.w	r3, r3, #144	; 0x90
 8001e9c:	60fb      	str	r3, [r7, #12]
 8001e9e:	887b      	ldrh	r3, [r7, #2]
 8001ea0:	2b20      	cmp	r3, #32
 8001ea2:	d103      	bne.n	8001eac <I2C_Enable_IRQ+0x50>
 8001ea4:	68fb      	ldr	r3, [r7, #12]
 8001ea6:	f043 0360 	orr.w	r3, r3, #96	; 0x60
 8001eaa:	60fb      	str	r3, [r7, #12]
 8001eac:	887b      	ldrh	r3, [r7, #2]
 8001eae:	2b40      	cmp	r3, #64	; 0x40
 8001eb0:	d12c      	bne.n	8001f0c <I2C_Enable_IRQ+0xb0>
 8001eb2:	68fb      	ldr	r3, [r7, #12]
 8001eb4:	f043 0340 	orr.w	r3, r3, #64	; 0x40
 8001eb8:	60fb      	str	r3, [r7, #12]
 8001eba:	e027      	b.n	8001f0c <I2C_Enable_IRQ+0xb0>
 8001ebc:	f9b7 3002 	ldrsh.w	r3, [r7, #2]
 8001ec0:	2b00      	cmp	r3, #0
 8001ec2:	da03      	bge.n	8001ecc <I2C_Enable_IRQ+0x70>
 8001ec4:	68fb      	ldr	r3, [r7, #12]
 8001ec6:	f043 03b8 	orr.w	r3, r3, #184	; 0xb8
 8001eca:	60fb      	str	r3, [r7, #12]
 8001ecc:	887b      	ldrh	r3, [r7, #2]
 8001ece:	f003 0301 	and.w	r3, r3, #1
 8001ed2:	2b00      	cmp	r3, #0
 8001ed4:	d003      	beq.n	8001ede <I2C_Enable_IRQ+0x82>
 8001ed6:	68fb      	ldr	r3, [r7, #12]
 8001ed8:	f043 03f2 	orr.w	r3, r3, #242	; 0xf2
 8001edc:	60fb      	str	r3, [r7, #12]
 8001ede:	887b      	ldrh	r3, [r7, #2]
 8001ee0:	f003 0302 	and.w	r3, r3, #2
 8001ee4:	2b00      	cmp	r3, #0
 8001ee6:	d003      	beq.n	8001ef0 <I2C_Enable_IRQ+0x94>
 8001ee8:	68fb      	ldr	r3, [r7, #12]
 8001eea:	f043 03f4 	orr.w	r3, r3, #244	; 0xf4
 8001eee:	60fb      	str	r3, [r7, #12]
 8001ef0:	887b      	ldrh	r3, [r7, #2]
 8001ef2:	2b10      	cmp	r3, #16
 8001ef4:	d103      	bne.n	8001efe <I2C_Enable_IRQ+0xa2>
 8001ef6:	68fb      	ldr	r3, [r7, #12]
 8001ef8:	f043 0390 	orr.w	r3, r3, #144	; 0x90
 8001efc:	60fb      	str	r3, [r7, #12]
 8001efe:	887b      	ldrh	r3, [r7, #2]
 8001f00:	2b20      	cmp	r3, #32
 8001f02:	d103      	bne.n	8001f0c <I2C_Enable_IRQ+0xb0>
 8001f04:	68fb      	ldr	r3, [r7, #12]
 8001f06:	f043 0320 	orr.w	r3, r3, #32
 8001f0a:	60fb      	str	r3, [r7, #12]
 8001f0c:	687b      	ldr	r3, [r7, #4]
 8001f0e:	681b      	ldr	r3, [r3, #0]
 8001f10:	687a      	ldr	r2, [r7, #4]
 8001f12:	6812      	ldr	r2, [r2, #0]
 8001f14:	6811      	ldr	r1, [r2, #0]
 8001f16:	68fa      	ldr	r2, [r7, #12]
 8001f18:	430a      	orrs	r2, r1
 8001f1a:	601a      	str	r2, [r3, #0]
 8001f1c:	bf00      	nop
 8001f1e:	3714      	adds	r7, #20
 8001f20:	46bd      	mov	sp, r7
 8001f22:	f85d 7b04 	ldr.w	r7, [sp], #4
 8001f26:	4770      	bx	lr
 8001f28:	08001169 	stmdaeq	r0, {r0, r3, r5, r6, r8, ip}
 8001f2c:	0800133f 	stmdaeq	r0, {r0, r1, r2, r3, r4, r5, r8, r9, ip}

08001f30 <I2C_Disable_IRQ>:
 8001f30:	b480      	push	{r7}
 8001f32:	b085      	sub	sp, #20
 8001f34:	af00      	add	r7, sp, #0
 8001f36:	6078      	str	r0, [r7, #4]
 8001f38:	460b      	mov	r3, r1
 8001f3a:	807b      	strh	r3, [r7, #2]
 8001f3c:	2300      	movs	r3, #0
 8001f3e:	60fb      	str	r3, [r7, #12]
 8001f40:	887b      	ldrh	r3, [r7, #2]
 8001f42:	f003 0301 	and.w	r3, r3, #1
 8001f46:	2b00      	cmp	r3, #0
 8001f48:	d00f      	beq.n	8001f6a <I2C_Disable_IRQ+0x3a>
 8001f4a:	68fb      	ldr	r3, [r7, #12]
 8001f4c:	f043 0342 	orr.w	r3, r3, #66	; 0x42
 8001f50:	60fb      	str	r3, [r7, #12]
 8001f52:	687b      	ldr	r3, [r7, #4]
 8001f54:	f893 3041 	ldrb.w	r3, [r3, #65]	; 0x41
 8001f58:	b2db      	uxtb	r3, r3
 8001f5a:	f003 0328 	and.w	r3, r3, #40	; 0x28
 8001f5e:	2b28      	cmp	r3, #40	; 0x28
 8001f60:	d003      	beq.n	8001f6a <I2C_Disable_IRQ+0x3a>
 8001f62:	68fb      	ldr	r3, [r7, #12]
 8001f64:	f043 03b0 	orr.w	r3, r3, #176	; 0xb0
 8001f68:	60fb      	str	r3, [r7, #12]
 8001f6a:	887b      	ldrh	r3, [r7, #2]
 8001f6c:	f003 0302 	and.w	r3, r3, #2
 8001f70:	2b00      	cmp	r3, #0
 8001f72:	d00f      	beq.n	8001f94 <I2C_Disable_IRQ+0x64>
 8001f74:	68fb      	ldr	r3, [r7, #12]
 8001f76:	f043 0344 	orr.w	r3, r3, #68	; 0x44
 8001f7a:	60fb      	str	r3, [r7, #12]
 8001f7c:	687b      	ldr	r3, [r7, #4]
 8001f7e:	f893 3041 	ldrb.w	r3, [r3, #65]	; 0x41
 8001f82:	b2db      	uxtb	r3, r3
 8001f84:	f003 0328 	and.w	r3, r3, #40	; 0x28
 8001f88:	2b28      	cmp	r3, #40	; 0x28
 8001f8a:	d003      	beq.n	8001f94 <I2C_Disable_IRQ+0x64>
 8001f8c:	68fb      	ldr	r3, [r7, #12]
 8001f8e:	f043 03b0 	orr.w	r3, r3, #176	; 0xb0
 8001f92:	60fb      	str	r3, [r7, #12]
 8001f94:	f9b7 3002 	ldrsh.w	r3, [r7, #2]
 8001f98:	2b00      	cmp	r3, #0
 8001f9a:	da03      	bge.n	8001fa4 <I2C_Disable_IRQ+0x74>
 8001f9c:	68fb      	ldr	r3, [r7, #12]
 8001f9e:	f043 03b8 	orr.w	r3, r3, #184	; 0xb8
 8001fa2:	60fb      	str	r3, [r7, #12]
 8001fa4:	887b      	ldrh	r3, [r7, #2]
 8001fa6:	2b10      	cmp	r3, #16
 8001fa8:	d103      	bne.n	8001fb2 <I2C_Disable_IRQ+0x82>
 8001faa:	68fb      	ldr	r3, [r7, #12]
 8001fac:	f043 0390 	orr.w	r3, r3, #144	; 0x90
 8001fb0:	60fb      	str	r3, [r7, #12]
 8001fb2:	887b      	ldrh	r3, [r7, #2]
 8001fb4:	2b20      	cmp	r3, #32
 8001fb6:	d103      	bne.n	8001fc0 <I2C_Disable_IRQ+0x90>
 8001fb8:	68fb      	ldr	r3, [r7, #12]
 8001fba:	f043 0320 	orr.w	r3, r3, #32
 8001fbe:	60fb      	str	r3, [r7, #12]
 8001fc0:	887b      	ldrh	r3, [r7, #2]
 8001fc2:	2b40      	cmp	r3, #64	; 0x40
 8001fc4:	d103      	bne.n	8001fce <I2C_Disable_IRQ+0x9e>
 8001fc6:	68fb      	ldr	r3, [r7, #12]
 8001fc8:	f043 0340 	orr.w	r3, r3, #64	; 0x40
 8001fcc:	60fb      	str	r3, [r7, #12]
 8001fce:	687b      	ldr	r3, [r7, #4]
 8001fd0:	681b      	ldr	r3, [r3, #0]
 8001fd2:	687a      	ldr	r2, [r7, #4]
 8001fd4:	6812      	ldr	r2, [r2, #0]
 8001fd6:	6811      	ldr	r1, [r2, #0]
 8001fd8:	68fa      	ldr	r2, [r7, #12]
 8001fda:	43d2      	mvns	r2, r2
 8001fdc:	400a      	ands	r2, r1
 8001fde:	601a      	str	r2, [r3, #0]
 8001fe0:	bf00      	nop
 8001fe2:	3714      	adds	r7, #20
 8001fe4:	46bd      	mov	sp, r7
 8001fe6:	f85d 7b04 	ldr.w	r7, [sp], #4
 8001fea:	4770      	bx	lr

08001fec <HAL_I2CEx_ConfigAnalogFilter>:
 8001fec:	b480      	push	{r7}
 8001fee:	b083      	sub	sp, #12
 8001ff0:	af00      	add	r7, sp, #0
 8001ff2:	6078      	str	r0, [r7, #4]
 8001ff4:	6039      	str	r1, [r7, #0]
 8001ff6:	687b      	ldr	r3, [r7, #4]
 8001ff8:	f893 3041 	ldrb.w	r3, [r3, #65]	; 0x41
 8001ffc:	b2db      	uxtb	r3, r3
 8001ffe:	2b20      	cmp	r3, #32
 8002000:	d138      	bne.n	8002074 <HAL_I2CEx_ConfigAnalogFilter+0x88>
 8002002:	687b      	ldr	r3, [r7, #4]
 8002004:	f893 3040 	ldrb.w	r3, [r3, #64]	; 0x40
 8002008:	2b01      	cmp	r3, #1
 800200a:	d101      	bne.n	8002010 <HAL_I2CEx_ConfigAnalogFilter+0x24>
 800200c:	2302      	movs	r3, #2
 800200e:	e032      	b.n	8002076 <HAL_I2CEx_ConfigAnalogFilter+0x8a>
 8002010:	687b      	ldr	r3, [r7, #4]
 8002012:	2201      	movs	r2, #1
 8002014:	f883 2040 	strb.w	r2, [r3, #64]	; 0x40
 8002018:	687b      	ldr	r3, [r7, #4]
 800201a:	2224      	movs	r2, #36	; 0x24
 800201c:	f883 2041 	strb.w	r2, [r3, #65]	; 0x41
 8002020:	687b      	ldr	r3, [r7, #4]
 8002022:	681b      	ldr	r3, [r3, #0]
 8002024:	687a      	ldr	r2, [r7, #4]
 8002026:	6812      	ldr	r2, [r2, #0]
 8002028:	6812      	ldr	r2, [r2, #0]
 800202a:	f022 0201 	bic.w	r2, r2, #1
 800202e:	601a      	str	r2, [r3, #0]
 8002030:	687b      	ldr	r3, [r7, #4]
 8002032:	681b      	ldr	r3, [r3, #0]
 8002034:	687a      	ldr	r2, [r7, #4]
 8002036:	6812      	ldr	r2, [r2, #0]
 8002038:	6812      	ldr	r2, [r2, #0]
 800203a:	f422 5280 	bic.w	r2, r2, #4096	; 0x1000
 800203e:	601a      	str	r2, [r3, #0]
 8002040:	687b      	ldr	r3, [r7, #4]
 8002042:	681b      	ldr	r3, [r3, #0]
 8002044:	687a      	ldr	r2, [r7, #4]
 8002046:	6812      	ldr	r2, [r2, #0]
 8002048:	6811      	ldr	r1, [r2, #0]
 800204a:	683a      	ldr	r2, [r7, #0]
 800204c:	430a      	orrs	r2, r1
 800204e:	601a      	str	r2, [r3, #0]
 8002050:	687b      	ldr	r3, [r7, #4]
 8002052:	681b      	ldr	r3, [r3, #0]
 8002054:	687a      	ldr	r2, [r7, #4]
 8002056:	6812      	ldr	r2, [r2, #0]
 8002058:	6812      	ldr	r2, [r2, #0]
 800205a:	f042 0201 	orr.w	r2, r2, #1
 800205e:	601a      	str	r2, [r3, #0]
 8002060:	687b      	ldr	r3, [r7, #4]
 8002062:	2220      	movs	r2, #32
 8002064:	f883 2041 	strb.w	r2, [r3, #65]	; 0x41
 8002068:	687b      	ldr	r3, [r7, #4]
 800206a:	2200      	movs	r2, #0
 800206c:	f883 2040 	strb.w	r2, [r3, #64]	; 0x40
 8002070:	2300      	movs	r3, #0
 8002072:	e000      	b.n	8002076 <HAL_I2CEx_ConfigAnalogFilter+0x8a>
 8002074:	2302      	movs	r3, #2
 8002076:	4618      	mov	r0, r3
 8002078:	370c      	adds	r7, #12
 800207a:	46bd      	mov	sp, r7
 800207c:	f85d 7b04 	ldr.w	r7, [sp], #4
 8002080:	4770      	bx	lr

08002082 <HAL_I2CEx_ConfigDigitalFilter>:
 8002082:	b480      	push	{r7}
 8002084:	b085      	sub	sp, #20
 8002086:	af00      	add	r7, sp, #0
 8002088:	6078      	str	r0, [r7, #4]
 800208a:	6039      	str	r1, [r7, #0]
 800208c:	687b      	ldr	r3, [r7, #4]
 800208e:	f893 3041 	ldrb.w	r3, [r3, #65]	; 0x41
 8002092:	b2db      	uxtb	r3, r3
 8002094:	2b20      	cmp	r3, #32
 8002096:	d139      	bne.n	800210c <HAL_I2CEx_ConfigDigitalFilter+0x8a>
 8002098:	687b      	ldr	r3, [r7, #4]
 800209a:	f893 3040 	ldrb.w	r3, [r3, #64]	; 0x40
 800209e:	2b01      	cmp	r3, #1
 80020a0:	d101      	bne.n	80020a6 <HAL_I2CEx_ConfigDigitalFilter+0x24>
 80020a2:	2302      	movs	r3, #2
 80020a4:	e033      	b.n	800210e <HAL_I2CEx_ConfigDigitalFilter+0x8c>
 80020a6:	687b      	ldr	r3, [r7, #4]
 80020a8:	2201      	movs	r2, #1
 80020aa:	f883 2040 	strb.w	r2, [r3, #64]	; 0x40
 80020ae:	687b      	ldr	r3, [r7, #4]
 80020b0:	2224      	movs	r2, #36	; 0x24
 80020b2:	f883 2041 	strb.w	r2, [r3, #65]	; 0x41
 80020b6:	687b      	ldr	r3, [r7, #4]
 80020b8:	681b      	ldr	r3, [r3, #0]
 80020ba:	687a      	ldr	r2, [r7, #4]
 80020bc:	6812      	ldr	r2, [r2, #0]
 80020be:	6812      	ldr	r2, [r2, #0]
 80020c0:	f022 0201 	bic.w	r2, r2, #1
 80020c4:	601a      	str	r2, [r3, #0]
 80020c6:	687b      	ldr	r3, [r7, #4]
 80020c8:	681b      	ldr	r3, [r3, #0]
 80020ca:	681b      	ldr	r3, [r3, #0]
 80020cc:	60fb      	str	r3, [r7, #12]
 80020ce:	68fb      	ldr	r3, [r7, #12]
 80020d0:	f423 6370 	bic.w	r3, r3, #3840	; 0xf00
 80020d4:	60fb      	str	r3, [r7, #12]
 80020d6:	683b      	ldr	r3, [r7, #0]
 80020d8:	021b      	lsls	r3, r3, #8
 80020da:	68fa      	ldr	r2, [r7, #12]
 80020dc:	4313      	orrs	r3, r2
 80020de:	60fb      	str	r3, [r7, #12]
 80020e0:	687b      	ldr	r3, [r7, #4]
 80020e2:	681b      	ldr	r3, [r3, #0]
 80020e4:	68fa      	ldr	r2, [r7, #12]
 80020e6:	601a      	str	r2, [r3, #0]
 80020e8:	687b      	ldr	r3, [r7, #4]
 80020ea:	681b      	ldr	r3, [r3, #0]
 80020ec:	687a      	ldr	r2, [r7, #4]
 80020ee:	6812      	ldr	r2, [r2, #0]
 80020f0:	6812      	ldr	r2, [r2, #0]
 80020f2:	f042 0201 	orr.w	r2, r2, #1
 80020f6:	601a      	str	r2, [r3, #0]
 80020f8:	687b      	ldr	r3, [r7, #4]
 80020fa:	2220      	movs	r2, #32
 80020fc:	f883 2041 	strb.w	r2, [r3, #65]	; 0x41
 8002100:	687b      	ldr	r3, [r7, #4]
 8002102:	2200      	movs	r2, #0
 8002104:	f883 2040 	strb.w	r2, [r3, #64]	; 0x40
 8002108:	2300      	movs	r3, #0
 800210a:	e000      	b.n	800210e <HAL_I2CEx_ConfigDigitalFilter+0x8c>
 800210c:	2302      	movs	r3, #2
 800210e:	4618      	mov	r0, r3
 8002110:	3714      	adds	r7, #20
 8002112:	46bd      	mov	sp, r7
 8002114:	f85d 7b04 	ldr.w	r7, [sp], #4
 8002118:	4770      	bx	lr
	...

0800211c <HAL_PWREx_GetVoltageRange>:
 800211c:	b480      	push	{r7}
 800211e:	af00      	add	r7, sp, #0
 8002120:	4b0d      	ldr	r3, [pc, #52]	; (8002158 <HAL_PWREx_GetVoltageRange+0x3c>)
 8002122:	681b      	ldr	r3, [r3, #0]
 8002124:	f403 63c0 	and.w	r3, r3, #1536	; 0x600
 8002128:	f5b3 6f80 	cmp.w	r3, #1024	; 0x400
 800212c:	d102      	bne.n	8002134 <HAL_PWREx_GetVoltageRange+0x18>
 800212e:	f44f 6380 	mov.w	r3, #1024	; 0x400
 8002132:	e00b      	b.n	800214c <HAL_PWREx_GetVoltageRange+0x30>
 8002134:	4b08      	ldr	r3, [pc, #32]	; (8002158 <HAL_PWREx_GetVoltageRange+0x3c>)
 8002136:	f8d3 3080 	ldr.w	r3, [r3, #128]	; 0x80
 800213a:	f403 7380 	and.w	r3, r3, #256	; 0x100
 800213e:	f5b3 7f80 	cmp.w	r3, #256	; 0x100
 8002142:	d102      	bne.n	800214a <HAL_PWREx_GetVoltageRange+0x2e>
 8002144:	f44f 7300 	mov.w	r3, #512	; 0x200
 8002148:	e000      	b.n	800214c <HAL_PWREx_GetVoltageRange+0x30>
 800214a:	2300      	movs	r3, #0
 800214c:	4618      	mov	r0, r3
 800214e:	46bd      	mov	sp, r7
 8002150:	f85d 7b04 	ldr.w	r7, [sp], #4
 8002154:	4770      	bx	lr
 8002156:	bf00      	nop
 8002158:	40007000 	andmi	r7, r0, r0

0800215c <HAL_PWREx_ControlVoltageScaling>:
 800215c:	b480      	push	{r7}
 800215e:	b085      	sub	sp, #20
 8002160:	af00      	add	r7, sp, #0
 8002162:	6078      	str	r0, [r7, #4]
 8002164:	687b      	ldr	r3, [r7, #4]
 8002166:	2b00      	cmp	r3, #0
 8002168:	d141      	bne.n	80021ee <HAL_PWREx_ControlVoltageScaling+0x92>
 800216a:	4b4b      	ldr	r3, [pc, #300]	; (8002298 <HAL_PWREx_ControlVoltageScaling+0x13c>)
 800216c:	681b      	ldr	r3, [r3, #0]
 800216e:	f403 63c0 	and.w	r3, r3, #1536	; 0x600
 8002172:	f5b3 6f80 	cmp.w	r3, #1024	; 0x400
 8002176:	d131      	bne.n	80021dc <HAL_PWREx_ControlVoltageScaling+0x80>
 8002178:	4a47      	ldr	r2, [pc, #284]	; (8002298 <HAL_PWREx_ControlVoltageScaling+0x13c>)
 800217a:	4b47      	ldr	r3, [pc, #284]	; (8002298 <HAL_PWREx_ControlVoltageScaling+0x13c>)
 800217c:	f8d3 3080 	ldr.w	r3, [r3, #128]	; 0x80
 8002180:	f423 7380 	bic.w	r3, r3, #256	; 0x100
 8002184:	f8c2 3080 	str.w	r3, [r2, #128]	; 0x80
 8002188:	4a43      	ldr	r2, [pc, #268]	; (8002298 <HAL_PWREx_ControlVoltageScaling+0x13c>)
 800218a:	4b43      	ldr	r3, [pc, #268]	; (8002298 <HAL_PWREx_ControlVoltageScaling+0x13c>)
 800218c:	681b      	ldr	r3, [r3, #0]
 800218e:	f423 63c0 	bic.w	r3, r3, #1536	; 0x600
 8002192:	f443 7300 	orr.w	r3, r3, #512	; 0x200
 8002196:	6013      	str	r3, [r2, #0]
 8002198:	4b40      	ldr	r3, [pc, #256]	; (800229c <HAL_PWREx_ControlVoltageScaling+0x140>)
 800219a:	681b      	ldr	r3, [r3, #0]
 800219c:	2232      	movs	r2, #50	; 0x32
 800219e:	fb02 f303 	mul.w	r3, r2, r3
 80021a2:	4a3f      	ldr	r2, [pc, #252]	; (80022a0 <HAL_PWREx_ControlVoltageScaling+0x144>)
 80021a4:	fba2 2303 	umull	r2, r3, r2, r3
 80021a8:	0c9b      	lsrs	r3, r3, #18
 80021aa:	3301      	adds	r3, #1
 80021ac:	60fb      	str	r3, [r7, #12]
 80021ae:	e002      	b.n	80021b6 <HAL_PWREx_ControlVoltageScaling+0x5a>
 80021b0:	68fb      	ldr	r3, [r7, #12]
 80021b2:	3b01      	subs	r3, #1
 80021b4:	60fb      	str	r3, [r7, #12]
 80021b6:	4b38      	ldr	r3, [pc, #224]	; (8002298 <HAL_PWREx_ControlVoltageScaling+0x13c>)
 80021b8:	695b      	ldr	r3, [r3, #20]
 80021ba:	f403 6380 	and.w	r3, r3, #1024	; 0x400
 80021be:	f5b3 6f80 	cmp.w	r3, #1024	; 0x400
 80021c2:	d102      	bne.n	80021ca <HAL_PWREx_ControlVoltageScaling+0x6e>
 80021c4:	68fb      	ldr	r3, [r7, #12]
 80021c6:	2b00      	cmp	r3, #0
 80021c8:	d1f2      	bne.n	80021b0 <HAL_PWREx_ControlVoltageScaling+0x54>
 80021ca:	4b33      	ldr	r3, [pc, #204]	; (8002298 <HAL_PWREx_ControlVoltageScaling+0x13c>)
 80021cc:	695b      	ldr	r3, [r3, #20]
 80021ce:	f403 6380 	and.w	r3, r3, #1024	; 0x400
 80021d2:	f5b3 6f80 	cmp.w	r3, #1024	; 0x400
 80021d6:	d158      	bne.n	800228a <HAL_PWREx_ControlVoltageScaling+0x12e>
 80021d8:	2303      	movs	r3, #3
 80021da:	e057      	b.n	800228c <HAL_PWREx_ControlVoltageScaling+0x130>
 80021dc:	4a2e      	ldr	r2, [pc, #184]	; (8002298 <HAL_PWREx_ControlVoltageScaling+0x13c>)
 80021de:	4b2e      	ldr	r3, [pc, #184]	; (8002298 <HAL_PWREx_ControlVoltageScaling+0x13c>)
 80021e0:	f8d3 3080 	ldr.w	r3, [r3, #128]	; 0x80
 80021e4:	f423 7380 	bic.w	r3, r3, #256	; 0x100
 80021e8:	f8c2 3080 	str.w	r3, [r2, #128]	; 0x80
 80021ec:	e04d      	b.n	800228a <HAL_PWREx_ControlVoltageScaling+0x12e>
 80021ee:	687b      	ldr	r3, [r7, #4]
 80021f0:	f5b3 7f00 	cmp.w	r3, #512	; 0x200
 80021f4:	d141      	bne.n	800227a <HAL_PWREx_ControlVoltageScaling+0x11e>
 80021f6:	4b28      	ldr	r3, [pc, #160]	; (8002298 <HAL_PWREx_ControlVoltageScaling+0x13c>)
 80021f8:	681b      	ldr	r3, [r3, #0]
 80021fa:	f403 63c0 	and.w	r3, r3, #1536	; 0x600
 80021fe:	f5b3 6f80 	cmp.w	r3, #1024	; 0x400
 8002202:	d131      	bne.n	8002268 <HAL_PWREx_ControlVoltageScaling+0x10c>
 8002204:	4a24      	ldr	r2, [pc, #144]	; (8002298 <HAL_PWREx_ControlVoltageScaling+0x13c>)
 8002206:	4b24      	ldr	r3, [pc, #144]	; (8002298 <HAL_PWREx_ControlVoltageScaling+0x13c>)
 8002208:	f8d3 3080 	ldr.w	r3, [r3, #128]	; 0x80
 800220c:	f443 7380 	orr.w	r3, r3, #256	; 0x100
 8002210:	f8c2 3080 	str.w	r3, [r2, #128]	; 0x80
 8002214:	4a20      	ldr	r2, [pc, #128]	; (8002298 <HAL_PWREx_ControlVoltageScaling+0x13c>)
 8002216:	4b20      	ldr	r3, [pc, #128]	; (8002298 <HAL_PWREx_ControlVoltageScaling+0x13c>)
 8002218:	681b      	ldr	r3, [r3, #0]
 800221a:	f423 63c0 	bic.w	r3, r3, #1536	; 0x600
 800221e:	f443 7300 	orr.w	r3, r3, #512	; 0x200
 8002222:	6013      	str	r3, [r2, #0]
 8002224:	4b1d      	ldr	r3, [pc, #116]	; (800229c <HAL_PWREx_ControlVoltageScaling+0x140>)
 8002226:	681b      	ldr	r3, [r3, #0]
 8002228:	2232      	movs	r2, #50	; 0x32
 800222a:	fb02 f303 	mul.w	r3, r2, r3
 800222e:	4a1c      	ldr	r2, [pc, #112]	; (80022a0 <HAL_PWREx_ControlVoltageScaling+0x144>)
 8002230:	fba2 2303 	umull	r2, r3, r2, r3
 8002234:	0c9b      	lsrs	r3, r3, #18
 8002236:	3301      	adds	r3, #1
 8002238:	60fb      	str	r3, [r7, #12]
 800223a:	e002      	b.n	8002242 <HAL_PWREx_ControlVoltageScaling+0xe6>
 800223c:	68fb      	ldr	r3, [r7, #12]
 800223e:	3b01      	subs	r3, #1
 8002240:	60fb      	str	r3, [r7, #12]
 8002242:	4b15      	ldr	r3, [pc, #84]	; (8002298 <HAL_PWREx_ControlVoltageScaling+0x13c>)
 8002244:	695b      	ldr	r3, [r3, #20]
 8002246:	f403 6380 	and.w	r3, r3, #1024	; 0x400
 800224a:	f5b3 6f80 	cmp.w	r3, #1024	; 0x400
 800224e:	d102      	bne.n	8002256 <HAL_PWREx_ControlVoltageScaling+0xfa>
 8002250:	68fb      	ldr	r3, [r7, #12]
 8002252:	2b00      	cmp	r3, #0
 8002254:	d1f2      	bne.n	800223c <HAL_PWREx_ControlVoltageScaling+0xe0>
 8002256:	4b10      	ldr	r3, [pc, #64]	; (8002298 <HAL_PWREx_ControlVoltageScaling+0x13c>)
 8002258:	695b      	ldr	r3, [r3, #20]
 800225a:	f403 6380 	and.w	r3, r3, #1024	; 0x400
 800225e:	f5b3 6f80 	cmp.w	r3, #1024	; 0x400
 8002262:	d112      	bne.n	800228a <HAL_PWREx_ControlVoltageScaling+0x12e>
 8002264:	2303      	movs	r3, #3
 8002266:	e011      	b.n	800228c <HAL_PWREx_ControlVoltageScaling+0x130>
 8002268:	4a0b      	ldr	r2, [pc, #44]	; (8002298 <HAL_PWREx_ControlVoltageScaling+0x13c>)
 800226a:	4b0b      	ldr	r3, [pc, #44]	; (8002298 <HAL_PWREx_ControlVoltageScaling+0x13c>)
 800226c:	f8d3 3080 	ldr.w	r3, [r3, #128]	; 0x80
 8002270:	f443 7380 	orr.w	r3, r3, #256	; 0x100
 8002274:	f8c2 3080 	str.w	r3, [r2, #128]	; 0x80
 8002278:	e007      	b.n	800228a <HAL_PWREx_ControlVoltageScaling+0x12e>
 800227a:	4a07      	ldr	r2, [pc, #28]	; (8002298 <HAL_PWREx_ControlVoltageScaling+0x13c>)
 800227c:	4b06      	ldr	r3, [pc, #24]	; (8002298 <HAL_PWREx_ControlVoltageScaling+0x13c>)
 800227e:	681b      	ldr	r3, [r3, #0]
 8002280:	f423 63c0 	bic.w	r3, r3, #1536	; 0x600
 8002284:	f443 6380 	orr.w	r3, r3, #1024	; 0x400
 8002288:	6013      	str	r3, [r2, #0]
 800228a:	2300      	movs	r3, #0
 800228c:	4618      	mov	r0, r3
 800228e:	3714      	adds	r7, #20
 8002290:	46bd      	mov	sp, r7
 8002292:	f85d 7b04 	ldr.w	r7, [sp], #4
 8002296:	4770      	bx	lr
 8002298:	40007000 	andmi	r7, r0, r0
 800229c:	20040078 	andcs	r0, r4, r8, ror r0
 80022a0:	431bde83 	tstmi	fp, #2096	; 0x830

080022a4 <HAL_PWREx_EnableVddIO2>:
 80022a4:	b480      	push	{r7}
 80022a6:	af00      	add	r7, sp, #0
 80022a8:	4a05      	ldr	r2, [pc, #20]	; (80022c0 <HAL_PWREx_EnableVddIO2+0x1c>)
 80022aa:	4b05      	ldr	r3, [pc, #20]	; (80022c0 <HAL_PWREx_EnableVddIO2+0x1c>)
 80022ac:	685b      	ldr	r3, [r3, #4]
 80022ae:	f443 7300 	orr.w	r3, r3, #512	; 0x200
 80022b2:	6053      	str	r3, [r2, #4]
 80022b4:	bf00      	nop
 80022b6:	46bd      	mov	sp, r7
 80022b8:	f85d 7b04 	ldr.w	r7, [sp], #4
 80022bc:	4770      	bx	lr
 80022be:	bf00      	nop
 80022c0:	40007000 	andmi	r7, r0, r0

080022c4 <HAL_RCC_OscConfig>:
 80022c4:	b580      	push	{r7, lr}
 80022c6:	b088      	sub	sp, #32
 80022c8:	af00      	add	r7, sp, #0
 80022ca:	6078      	str	r0, [r7, #4]
 80022cc:	687b      	ldr	r3, [r7, #4]
 80022ce:	2b00      	cmp	r3, #0
 80022d0:	d101      	bne.n	80022d6 <HAL_RCC_OscConfig+0x12>
 80022d2:	2301      	movs	r3, #1
 80022d4:	e33d      	b.n	8002952 <HAL_RCC_OscConfig+0x68e>
 80022d6:	4ba1      	ldr	r3, [pc, #644]	; (800255c <HAL_RCC_OscConfig+0x298>)
 80022d8:	689b      	ldr	r3, [r3, #8]
 80022da:	f003 030c 	and.w	r3, r3, #12
 80022de:	61bb      	str	r3, [r7, #24]
 80022e0:	4b9e      	ldr	r3, [pc, #632]	; (800255c <HAL_RCC_OscConfig+0x298>)
 80022e2:	68db      	ldr	r3, [r3, #12]
 80022e4:	f003 0303 	and.w	r3, r3, #3
 80022e8:	617b      	str	r3, [r7, #20]
 80022ea:	687b      	ldr	r3, [r7, #4]
 80022ec:	681b      	ldr	r3, [r3, #0]
 80022ee:	f003 0310 	and.w	r3, r3, #16
 80022f2:	2b00      	cmp	r3, #0
 80022f4:	f000 80d8 	beq.w	80024a8 <HAL_RCC_OscConfig+0x1e4>
 80022f8:	69bb      	ldr	r3, [r7, #24]
 80022fa:	2b00      	cmp	r3, #0
 80022fc:	d006      	beq.n	800230c <HAL_RCC_OscConfig+0x48>
 80022fe:	69bb      	ldr	r3, [r7, #24]
 8002300:	2b0c      	cmp	r3, #12
 8002302:	f040 8081 	bne.w	8002408 <HAL_RCC_OscConfig+0x144>
 8002306:	697b      	ldr	r3, [r7, #20]
 8002308:	2b01      	cmp	r3, #1
 800230a:	d17d      	bne.n	8002408 <HAL_RCC_OscConfig+0x144>
 800230c:	4b93      	ldr	r3, [pc, #588]	; (800255c <HAL_RCC_OscConfig+0x298>)
 800230e:	681b      	ldr	r3, [r3, #0]
 8002310:	f003 0302 	and.w	r3, r3, #2
 8002314:	2b00      	cmp	r3, #0
 8002316:	d005      	beq.n	8002324 <HAL_RCC_OscConfig+0x60>
 8002318:	687b      	ldr	r3, [r7, #4]
 800231a:	699b      	ldr	r3, [r3, #24]
 800231c:	2b00      	cmp	r3, #0
 800231e:	d101      	bne.n	8002324 <HAL_RCC_OscConfig+0x60>
 8002320:	2301      	movs	r3, #1
 8002322:	e316      	b.n	8002952 <HAL_RCC_OscConfig+0x68e>
 8002324:	687b      	ldr	r3, [r7, #4]
 8002326:	6a1a      	ldr	r2, [r3, #32]
 8002328:	4b8c      	ldr	r3, [pc, #560]	; (800255c <HAL_RCC_OscConfig+0x298>)
 800232a:	681b      	ldr	r3, [r3, #0]
 800232c:	f003 0308 	and.w	r3, r3, #8
 8002330:	2b00      	cmp	r3, #0
 8002332:	d004      	beq.n	800233e <HAL_RCC_OscConfig+0x7a>
 8002334:	4b89      	ldr	r3, [pc, #548]	; (800255c <HAL_RCC_OscConfig+0x298>)
 8002336:	681b      	ldr	r3, [r3, #0]
 8002338:	f003 03f0 	and.w	r3, r3, #240	; 0xf0
 800233c:	e005      	b.n	800234a <HAL_RCC_OscConfig+0x86>
 800233e:	4b87      	ldr	r3, [pc, #540]	; (800255c <HAL_RCC_OscConfig+0x298>)
 8002340:	f8d3 3094 	ldr.w	r3, [r3, #148]	; 0x94
 8002344:	091b      	lsrs	r3, r3, #4
 8002346:	f003 03f0 	and.w	r3, r3, #240	; 0xf0
 800234a:	429a      	cmp	r2, r3
 800234c:	d923      	bls.n	8002396 <HAL_RCC_OscConfig+0xd2>
 800234e:	687b      	ldr	r3, [r7, #4]
 8002350:	6a1b      	ldr	r3, [r3, #32]
 8002352:	4618      	mov	r0, r3
 8002354:	f000 fcf0 	bl	8002d38 <RCC_SetFlashLatencyFromMSIRange>
 8002358:	4603      	mov	r3, r0
 800235a:	2b00      	cmp	r3, #0
 800235c:	d001      	beq.n	8002362 <HAL_RCC_OscConfig+0x9e>
 800235e:	2301      	movs	r3, #1
 8002360:	e2f7      	b.n	8002952 <HAL_RCC_OscConfig+0x68e>
 8002362:	4a7e      	ldr	r2, [pc, #504]	; (800255c <HAL_RCC_OscConfig+0x298>)
 8002364:	4b7d      	ldr	r3, [pc, #500]	; (800255c <HAL_RCC_OscConfig+0x298>)
 8002366:	681b      	ldr	r3, [r3, #0]
 8002368:	f043 0308 	orr.w	r3, r3, #8
 800236c:	6013      	str	r3, [r2, #0]
 800236e:	497b      	ldr	r1, [pc, #492]	; (800255c <HAL_RCC_OscConfig+0x298>)
 8002370:	4b7a      	ldr	r3, [pc, #488]	; (800255c <HAL_RCC_OscConfig+0x298>)
 8002372:	681b      	ldr	r3, [r3, #0]
 8002374:	f023 02f0 	bic.w	r2, r3, #240	; 0xf0
 8002378:	687b      	ldr	r3, [r7, #4]
 800237a:	6a1b      	ldr	r3, [r3, #32]
 800237c:	4313      	orrs	r3, r2
 800237e:	600b      	str	r3, [r1, #0]
 8002380:	4976      	ldr	r1, [pc, #472]	; (800255c <HAL_RCC_OscConfig+0x298>)
 8002382:	4b76      	ldr	r3, [pc, #472]	; (800255c <HAL_RCC_OscConfig+0x298>)
 8002384:	685b      	ldr	r3, [r3, #4]
 8002386:	f423 427f 	bic.w	r2, r3, #65280	; 0xff00
 800238a:	687b      	ldr	r3, [r7, #4]
 800238c:	69db      	ldr	r3, [r3, #28]
 800238e:	021b      	lsls	r3, r3, #8
 8002390:	4313      	orrs	r3, r2
 8002392:	604b      	str	r3, [r1, #4]
 8002394:	e025      	b.n	80023e2 <HAL_RCC_OscConfig+0x11e>
 8002396:	4a71      	ldr	r2, [pc, #452]	; (800255c <HAL_RCC_OscConfig+0x298>)
 8002398:	4b70      	ldr	r3, [pc, #448]	; (800255c <HAL_RCC_OscConfig+0x298>)
 800239a:	681b      	ldr	r3, [r3, #0]
 800239c:	f043 0308 	orr.w	r3, r3, #8
 80023a0:	6013      	str	r3, [r2, #0]
 80023a2:	496e      	ldr	r1, [pc, #440]	; (800255c <HAL_RCC_OscConfig+0x298>)
 80023a4:	4b6d      	ldr	r3, [pc, #436]	; (800255c <HAL_RCC_OscConfig+0x298>)
 80023a6:	681b      	ldr	r3, [r3, #0]
 80023a8:	f023 02f0 	bic.w	r2, r3, #240	; 0xf0
 80023ac:	687b      	ldr	r3, [r7, #4]
 80023ae:	6a1b      	ldr	r3, [r3, #32]
 80023b0:	4313      	orrs	r3, r2
 80023b2:	600b      	str	r3, [r1, #0]
 80023b4:	4969      	ldr	r1, [pc, #420]	; (800255c <HAL_RCC_OscConfig+0x298>)
 80023b6:	4b69      	ldr	r3, [pc, #420]	; (800255c <HAL_RCC_OscConfig+0x298>)
 80023b8:	685b      	ldr	r3, [r3, #4]
 80023ba:	f423 427f 	bic.w	r2, r3, #65280	; 0xff00
 80023be:	687b      	ldr	r3, [r7, #4]
 80023c0:	69db      	ldr	r3, [r3, #28]
 80023c2:	021b      	lsls	r3, r3, #8
 80023c4:	4313      	orrs	r3, r2
 80023c6:	604b      	str	r3, [r1, #4]
 80023c8:	69bb      	ldr	r3, [r7, #24]
 80023ca:	2b00      	cmp	r3, #0
 80023cc:	d109      	bne.n	80023e2 <HAL_RCC_OscConfig+0x11e>
 80023ce:	687b      	ldr	r3, [r7, #4]
 80023d0:	6a1b      	ldr	r3, [r3, #32]
 80023d2:	4618      	mov	r0, r3
 80023d4:	f000 fcb0 	bl	8002d38 <RCC_SetFlashLatencyFromMSIRange>
 80023d8:	4603      	mov	r3, r0
 80023da:	2b00      	cmp	r3, #0
 80023dc:	d001      	beq.n	80023e2 <HAL_RCC_OscConfig+0x11e>
 80023de:	2301      	movs	r3, #1
 80023e0:	e2b7      	b.n	8002952 <HAL_RCC_OscConfig+0x68e>
 80023e2:	f000 fbe7 	bl	8002bb4 <HAL_RCC_GetSysClockFreq>
 80023e6:	4601      	mov	r1, r0
 80023e8:	4b5c      	ldr	r3, [pc, #368]	; (800255c <HAL_RCC_OscConfig+0x298>)
 80023ea:	689b      	ldr	r3, [r3, #8]
 80023ec:	091b      	lsrs	r3, r3, #4
 80023ee:	f003 030f 	and.w	r3, r3, #15
 80023f2:	4a5b      	ldr	r2, [pc, #364]	; (8002560 <HAL_RCC_OscConfig+0x29c>)
 80023f4:	5cd3      	ldrb	r3, [r2, r3]
 80023f6:	f003 031f 	and.w	r3, r3, #31
 80023fa:	fa21 f303 	lsr.w	r3, r1, r3
 80023fe:	4a59      	ldr	r2, [pc, #356]	; (8002564 <HAL_RCC_OscConfig+0x2a0>)
 8002400:	6013      	str	r3, [r2, #0]
 8002402:	2300      	movs	r3, #0
 8002404:	73fb      	strb	r3, [r7, #15]
 8002406:	e04f      	b.n	80024a8 <HAL_RCC_OscConfig+0x1e4>
 8002408:	687b      	ldr	r3, [r7, #4]
 800240a:	699b      	ldr	r3, [r3, #24]
 800240c:	2b00      	cmp	r3, #0
 800240e:	d032      	beq.n	8002476 <HAL_RCC_OscConfig+0x1b2>
 8002410:	4a52      	ldr	r2, [pc, #328]	; (800255c <HAL_RCC_OscConfig+0x298>)
 8002412:	4b52      	ldr	r3, [pc, #328]	; (800255c <HAL_RCC_OscConfig+0x298>)
 8002414:	681b      	ldr	r3, [r3, #0]
 8002416:	f043 0301 	orr.w	r3, r3, #1
 800241a:	6013      	str	r3, [r2, #0]
 800241c:	f7fd ff00 	bl	8000220 <HAL_GetTick>
 8002420:	6138      	str	r0, [r7, #16]
 8002422:	e008      	b.n	8002436 <HAL_RCC_OscConfig+0x172>
 8002424:	f7fd fefc 	bl	8000220 <HAL_GetTick>
 8002428:	4602      	mov	r2, r0
 800242a:	693b      	ldr	r3, [r7, #16]
 800242c:	1ad3      	subs	r3, r2, r3
 800242e:	2b02      	cmp	r3, #2
 8002430:	d901      	bls.n	8002436 <HAL_RCC_OscConfig+0x172>
 8002432:	2303      	movs	r3, #3
 8002434:	e28d      	b.n	8002952 <HAL_RCC_OscConfig+0x68e>
 8002436:	4b49      	ldr	r3, [pc, #292]	; (800255c <HAL_RCC_OscConfig+0x298>)
 8002438:	681b      	ldr	r3, [r3, #0]
 800243a:	f003 0302 	and.w	r3, r3, #2
 800243e:	2b00      	cmp	r3, #0
 8002440:	d0f0      	beq.n	8002424 <HAL_RCC_OscConfig+0x160>
 8002442:	4a46      	ldr	r2, [pc, #280]	; (800255c <HAL_RCC_OscConfig+0x298>)
 8002444:	4b45      	ldr	r3, [pc, #276]	; (800255c <HAL_RCC_OscConfig+0x298>)
 8002446:	681b      	ldr	r3, [r3, #0]
 8002448:	f043 0308 	orr.w	r3, r3, #8
 800244c:	6013      	str	r3, [r2, #0]
 800244e:	4943      	ldr	r1, [pc, #268]	; (800255c <HAL_RCC_OscConfig+0x298>)
 8002450:	4b42      	ldr	r3, [pc, #264]	; (800255c <HAL_RCC_OscConfig+0x298>)
 8002452:	681b      	ldr	r3, [r3, #0]
 8002454:	f023 02f0 	bic.w	r2, r3, #240	; 0xf0
 8002458:	687b      	ldr	r3, [r7, #4]
 800245a:	6a1b      	ldr	r3, [r3, #32]
 800245c:	4313      	orrs	r3, r2
 800245e:	600b      	str	r3, [r1, #0]
 8002460:	493e      	ldr	r1, [pc, #248]	; (800255c <HAL_RCC_OscConfig+0x298>)
 8002462:	4b3e      	ldr	r3, [pc, #248]	; (800255c <HAL_RCC_OscConfig+0x298>)
 8002464:	685b      	ldr	r3, [r3, #4]
 8002466:	f423 427f 	bic.w	r2, r3, #65280	; 0xff00
 800246a:	687b      	ldr	r3, [r7, #4]
 800246c:	69db      	ldr	r3, [r3, #28]
 800246e:	021b      	lsls	r3, r3, #8
 8002470:	4313      	orrs	r3, r2
 8002472:	604b      	str	r3, [r1, #4]
 8002474:	e018      	b.n	80024a8 <HAL_RCC_OscConfig+0x1e4>
 8002476:	4a39      	ldr	r2, [pc, #228]	; (800255c <HAL_RCC_OscConfig+0x298>)
 8002478:	4b38      	ldr	r3, [pc, #224]	; (800255c <HAL_RCC_OscConfig+0x298>)
 800247a:	681b      	ldr	r3, [r3, #0]
 800247c:	f023 0301 	bic.w	r3, r3, #1
 8002480:	6013      	str	r3, [r2, #0]
 8002482:	f7fd fecd 	bl	8000220 <HAL_GetTick>
 8002486:	6138      	str	r0, [r7, #16]
 8002488:	e008      	b.n	800249c <HAL_RCC_OscConfig+0x1d8>
 800248a:	f7fd fec9 	bl	8000220 <HAL_GetTick>
 800248e:	4602      	mov	r2, r0
 8002490:	693b      	ldr	r3, [r7, #16]
 8002492:	1ad3      	subs	r3, r2, r3
 8002494:	2b02      	cmp	r3, #2
 8002496:	d901      	bls.n	800249c <HAL_RCC_OscConfig+0x1d8>
 8002498:	2303      	movs	r3, #3
 800249a:	e25a      	b.n	8002952 <HAL_RCC_OscConfig+0x68e>
 800249c:	4b2f      	ldr	r3, [pc, #188]	; (800255c <HAL_RCC_OscConfig+0x298>)
 800249e:	681b      	ldr	r3, [r3, #0]
 80024a0:	f003 0302 	and.w	r3, r3, #2
 80024a4:	2b00      	cmp	r3, #0
 80024a6:	d1f0      	bne.n	800248a <HAL_RCC_OscConfig+0x1c6>
 80024a8:	687b      	ldr	r3, [r7, #4]
 80024aa:	681b      	ldr	r3, [r3, #0]
 80024ac:	f003 0301 	and.w	r3, r3, #1
 80024b0:	2b00      	cmp	r3, #0
 80024b2:	d05a      	beq.n	800256a <HAL_RCC_OscConfig+0x2a6>
 80024b4:	69bb      	ldr	r3, [r7, #24]
 80024b6:	2b08      	cmp	r3, #8
 80024b8:	d005      	beq.n	80024c6 <HAL_RCC_OscConfig+0x202>
 80024ba:	69bb      	ldr	r3, [r7, #24]
 80024bc:	2b0c      	cmp	r3, #12
 80024be:	d10e      	bne.n	80024de <HAL_RCC_OscConfig+0x21a>
 80024c0:	697b      	ldr	r3, [r7, #20]
 80024c2:	2b03      	cmp	r3, #3
 80024c4:	d10b      	bne.n	80024de <HAL_RCC_OscConfig+0x21a>
 80024c6:	4b25      	ldr	r3, [pc, #148]	; (800255c <HAL_RCC_OscConfig+0x298>)
 80024c8:	681b      	ldr	r3, [r3, #0]
 80024ca:	f403 3300 	and.w	r3, r3, #131072	; 0x20000
 80024ce:	2b00      	cmp	r3, #0
 80024d0:	d04a      	beq.n	8002568 <HAL_RCC_OscConfig+0x2a4>
 80024d2:	687b      	ldr	r3, [r7, #4]
 80024d4:	685b      	ldr	r3, [r3, #4]
 80024d6:	2b00      	cmp	r3, #0
 80024d8:	d146      	bne.n	8002568 <HAL_RCC_OscConfig+0x2a4>
 80024da:	2301      	movs	r3, #1
 80024dc:	e239      	b.n	8002952 <HAL_RCC_OscConfig+0x68e>
 80024de:	687b      	ldr	r3, [r7, #4]
 80024e0:	685b      	ldr	r3, [r3, #4]
 80024e2:	f5b3 3f80 	cmp.w	r3, #65536	; 0x10000
 80024e6:	d106      	bne.n	80024f6 <HAL_RCC_OscConfig+0x232>
 80024e8:	4a1c      	ldr	r2, [pc, #112]	; (800255c <HAL_RCC_OscConfig+0x298>)
 80024ea:	4b1c      	ldr	r3, [pc, #112]	; (800255c <HAL_RCC_OscConfig+0x298>)
 80024ec:	681b      	ldr	r3, [r3, #0]
 80024ee:	f443 3380 	orr.w	r3, r3, #65536	; 0x10000
 80024f2:	6013      	str	r3, [r2, #0]
 80024f4:	e01d      	b.n	8002532 <HAL_RCC_OscConfig+0x26e>
 80024f6:	687b      	ldr	r3, [r7, #4]
 80024f8:	685b      	ldr	r3, [r3, #4]
 80024fa:	f5b3 2fa0 	cmp.w	r3, #327680	; 0x50000
 80024fe:	d10c      	bne.n	800251a <HAL_RCC_OscConfig+0x256>
 8002500:	4a16      	ldr	r2, [pc, #88]	; (800255c <HAL_RCC_OscConfig+0x298>)
 8002502:	4b16      	ldr	r3, [pc, #88]	; (800255c <HAL_RCC_OscConfig+0x298>)
 8002504:	681b      	ldr	r3, [r3, #0]
 8002506:	f443 2380 	orr.w	r3, r3, #262144	; 0x40000
 800250a:	6013      	str	r3, [r2, #0]
 800250c:	4a13      	ldr	r2, [pc, #76]	; (800255c <HAL_RCC_OscConfig+0x298>)
 800250e:	4b13      	ldr	r3, [pc, #76]	; (800255c <HAL_RCC_OscConfig+0x298>)
 8002510:	681b      	ldr	r3, [r3, #0]
 8002512:	f443 3380 	orr.w	r3, r3, #65536	; 0x10000
 8002516:	6013      	str	r3, [r2, #0]
 8002518:	e00b      	b.n	8002532 <HAL_RCC_OscConfig+0x26e>
 800251a:	4a10      	ldr	r2, [pc, #64]	; (800255c <HAL_RCC_OscConfig+0x298>)
 800251c:	4b0f      	ldr	r3, [pc, #60]	; (800255c <HAL_RCC_OscConfig+0x298>)
 800251e:	681b      	ldr	r3, [r3, #0]
 8002520:	f423 3380 	bic.w	r3, r3, #65536	; 0x10000
 8002524:	6013      	str	r3, [r2, #0]
 8002526:	4a0d      	ldr	r2, [pc, #52]	; (800255c <HAL_RCC_OscConfig+0x298>)
 8002528:	4b0c      	ldr	r3, [pc, #48]	; (800255c <HAL_RCC_OscConfig+0x298>)
 800252a:	681b      	ldr	r3, [r3, #0]
 800252c:	f423 2380 	bic.w	r3, r3, #262144	; 0x40000
 8002530:	6013      	str	r3, [r2, #0]
 8002532:	687b      	ldr	r3, [r7, #4]
 8002534:	685b      	ldr	r3, [r3, #4]
 8002536:	2b00      	cmp	r3, #0
 8002538:	d007      	beq.n	800254a <HAL_RCC_OscConfig+0x286>
 800253a:	bf00      	nop
 800253c:	4b07      	ldr	r3, [pc, #28]	; (800255c <HAL_RCC_OscConfig+0x298>)
 800253e:	681b      	ldr	r3, [r3, #0]
 8002540:	f403 3300 	and.w	r3, r3, #131072	; 0x20000
 8002544:	2b00      	cmp	r3, #0
 8002546:	d0f9      	beq.n	800253c <HAL_RCC_OscConfig+0x278>
 8002548:	e00f      	b.n	800256a <HAL_RCC_OscConfig+0x2a6>
 800254a:	bf00      	nop
 800254c:	4b03      	ldr	r3, [pc, #12]	; (800255c <HAL_RCC_OscConfig+0x298>)
 800254e:	681b      	ldr	r3, [r3, #0]
 8002550:	f403 3300 	and.w	r3, r3, #131072	; 0x20000
 8002554:	2b00      	cmp	r3, #0
 8002556:	d1f9      	bne.n	800254c <HAL_RCC_OscConfig+0x288>
 8002558:	e007      	b.n	800256a <HAL_RCC_OscConfig+0x2a6>
 800255a:	bf00      	nop
 800255c:	40021000 	andmi	r1, r2, r0
 8002560:	0800b51c 	stmdaeq	r0, {r2, r3, r4, r8, sl, ip, sp, pc}
 8002564:	20040078 	andcs	r0, r4, r8, ror r0
 8002568:	bf00      	nop
 800256a:	687b      	ldr	r3, [r7, #4]
 800256c:	681b      	ldr	r3, [r3, #0]
 800256e:	f003 0302 	and.w	r3, r3, #2
 8002572:	2b00      	cmp	r3, #0
 8002574:	d048      	beq.n	8002608 <HAL_RCC_OscConfig+0x344>
 8002576:	69bb      	ldr	r3, [r7, #24]
 8002578:	2b04      	cmp	r3, #4
 800257a:	d005      	beq.n	8002588 <HAL_RCC_OscConfig+0x2c4>
 800257c:	69bb      	ldr	r3, [r7, #24]
 800257e:	2b0c      	cmp	r3, #12
 8002580:	d119      	bne.n	80025b6 <HAL_RCC_OscConfig+0x2f2>
 8002582:	697b      	ldr	r3, [r7, #20]
 8002584:	2b02      	cmp	r3, #2
 8002586:	d116      	bne.n	80025b6 <HAL_RCC_OscConfig+0x2f2>
 8002588:	4b82      	ldr	r3, [pc, #520]	; (8002794 <HAL_RCC_OscConfig+0x4d0>)
 800258a:	681b      	ldr	r3, [r3, #0]
 800258c:	f403 6380 	and.w	r3, r3, #1024	; 0x400
 8002590:	2b00      	cmp	r3, #0
 8002592:	d005      	beq.n	80025a0 <HAL_RCC_OscConfig+0x2dc>
 8002594:	687b      	ldr	r3, [r7, #4]
 8002596:	68db      	ldr	r3, [r3, #12]
 8002598:	2b00      	cmp	r3, #0
 800259a:	d101      	bne.n	80025a0 <HAL_RCC_OscConfig+0x2dc>
 800259c:	2301      	movs	r3, #1
 800259e:	e1d8      	b.n	8002952 <HAL_RCC_OscConfig+0x68e>
 80025a0:	497c      	ldr	r1, [pc, #496]	; (8002794 <HAL_RCC_OscConfig+0x4d0>)
 80025a2:	4b7c      	ldr	r3, [pc, #496]	; (8002794 <HAL_RCC_OscConfig+0x4d0>)
 80025a4:	685b      	ldr	r3, [r3, #4]
 80025a6:	f023 42fe 	bic.w	r2, r3, #2130706432	; 0x7f000000
 80025aa:	687b      	ldr	r3, [r7, #4]
 80025ac:	691b      	ldr	r3, [r3, #16]
 80025ae:	061b      	lsls	r3, r3, #24
 80025b0:	4313      	orrs	r3, r2
 80025b2:	604b      	str	r3, [r1, #4]
 80025b4:	e028      	b.n	8002608 <HAL_RCC_OscConfig+0x344>
 80025b6:	687b      	ldr	r3, [r7, #4]
 80025b8:	68db      	ldr	r3, [r3, #12]
 80025ba:	2b00      	cmp	r3, #0
 80025bc:	d017      	beq.n	80025ee <HAL_RCC_OscConfig+0x32a>
 80025be:	4a75      	ldr	r2, [pc, #468]	; (8002794 <HAL_RCC_OscConfig+0x4d0>)
 80025c0:	4b74      	ldr	r3, [pc, #464]	; (8002794 <HAL_RCC_OscConfig+0x4d0>)
 80025c2:	681b      	ldr	r3, [r3, #0]
 80025c4:	f443 7380 	orr.w	r3, r3, #256	; 0x100
 80025c8:	6013      	str	r3, [r2, #0]
 80025ca:	bf00      	nop
 80025cc:	4b71      	ldr	r3, [pc, #452]	; (8002794 <HAL_RCC_OscConfig+0x4d0>)
 80025ce:	681b      	ldr	r3, [r3, #0]
 80025d0:	f403 6380 	and.w	r3, r3, #1024	; 0x400
 80025d4:	2b00      	cmp	r3, #0
 80025d6:	d0f9      	beq.n	80025cc <HAL_RCC_OscConfig+0x308>
 80025d8:	496e      	ldr	r1, [pc, #440]	; (8002794 <HAL_RCC_OscConfig+0x4d0>)
 80025da:	4b6e      	ldr	r3, [pc, #440]	; (8002794 <HAL_RCC_OscConfig+0x4d0>)
 80025dc:	685b      	ldr	r3, [r3, #4]
 80025de:	f023 42fe 	bic.w	r2, r3, #2130706432	; 0x7f000000
 80025e2:	687b      	ldr	r3, [r7, #4]
 80025e4:	691b      	ldr	r3, [r3, #16]
 80025e6:	061b      	lsls	r3, r3, #24
 80025e8:	4313      	orrs	r3, r2
 80025ea:	604b      	str	r3, [r1, #4]
 80025ec:	e00c      	b.n	8002608 <HAL_RCC_OscConfig+0x344>
 80025ee:	4a69      	ldr	r2, [pc, #420]	; (8002794 <HAL_RCC_OscConfig+0x4d0>)
 80025f0:	4b68      	ldr	r3, [pc, #416]	; (8002794 <HAL_RCC_OscConfig+0x4d0>)
 80025f2:	681b      	ldr	r3, [r3, #0]
 80025f4:	f423 7380 	bic.w	r3, r3, #256	; 0x100
 80025f8:	6013      	str	r3, [r2, #0]
 80025fa:	bf00      	nop
 80025fc:	4b65      	ldr	r3, [pc, #404]	; (8002794 <HAL_RCC_OscConfig+0x4d0>)
 80025fe:	681b      	ldr	r3, [r3, #0]
 8002600:	f403 6380 	and.w	r3, r3, #1024	; 0x400
 8002604:	2b00      	cmp	r3, #0
 8002606:	d1f9      	bne.n	80025fc <HAL_RCC_OscConfig+0x338>
 8002608:	687b      	ldr	r3, [r7, #4]
 800260a:	681b      	ldr	r3, [r3, #0]
 800260c:	f003 0308 	and.w	r3, r3, #8
 8002610:	2b00      	cmp	r3, #0
 8002612:	d024      	beq.n	800265e <HAL_RCC_OscConfig+0x39a>
 8002614:	687b      	ldr	r3, [r7, #4]
 8002616:	695b      	ldr	r3, [r3, #20]
 8002618:	2b00      	cmp	r3, #0
 800261a:	d010      	beq.n	800263e <HAL_RCC_OscConfig+0x37a>
 800261c:	4a5d      	ldr	r2, [pc, #372]	; (8002794 <HAL_RCC_OscConfig+0x4d0>)
 800261e:	4b5d      	ldr	r3, [pc, #372]	; (8002794 <HAL_RCC_OscConfig+0x4d0>)
 8002620:	f8d3 3094 	ldr.w	r3, [r3, #148]	; 0x94
 8002624:	f043 0301 	orr.w	r3, r3, #1
 8002628:	f8c2 3094 	str.w	r3, [r2, #148]	; 0x94
 800262c:	bf00      	nop
 800262e:	4b59      	ldr	r3, [pc, #356]	; (8002794 <HAL_RCC_OscConfig+0x4d0>)
 8002630:	f8d3 3094 	ldr.w	r3, [r3, #148]	; 0x94
 8002634:	f003 0302 	and.w	r3, r3, #2
 8002638:	2b00      	cmp	r3, #0
 800263a:	d0f8      	beq.n	800262e <HAL_RCC_OscConfig+0x36a>
 800263c:	e00f      	b.n	800265e <HAL_RCC_OscConfig+0x39a>
 800263e:	4a55      	ldr	r2, [pc, #340]	; (8002794 <HAL_RCC_OscConfig+0x4d0>)
 8002640:	4b54      	ldr	r3, [pc, #336]	; (8002794 <HAL_RCC_OscConfig+0x4d0>)
 8002642:	f8d3 3094 	ldr.w	r3, [r3, #148]	; 0x94
 8002646:	f023 0301 	bic.w	r3, r3, #1
 800264a:	f8c2 3094 	str.w	r3, [r2, #148]	; 0x94
 800264e:	bf00      	nop
 8002650:	4b50      	ldr	r3, [pc, #320]	; (8002794 <HAL_RCC_OscConfig+0x4d0>)
 8002652:	f8d3 3094 	ldr.w	r3, [r3, #148]	; 0x94
 8002656:	f003 0302 	and.w	r3, r3, #2
 800265a:	2b00      	cmp	r3, #0
 800265c:	d1f8      	bne.n	8002650 <HAL_RCC_OscConfig+0x38c>
 800265e:	687b      	ldr	r3, [r7, #4]
 8002660:	681b      	ldr	r3, [r3, #0]
 8002662:	f003 0304 	and.w	r3, r3, #4
 8002666:	2b00      	cmp	r3, #0
 8002668:	d078      	beq.n	800275c <HAL_RCC_OscConfig+0x498>
 800266a:	2300      	movs	r3, #0
 800266c:	77fb      	strb	r3, [r7, #31]
 800266e:	4b49      	ldr	r3, [pc, #292]	; (8002794 <HAL_RCC_OscConfig+0x4d0>)
 8002670:	6d9b      	ldr	r3, [r3, #88]	; 0x58
 8002672:	f003 5380 	and.w	r3, r3, #268435456	; 0x10000000
 8002676:	2b00      	cmp	r3, #0
 8002678:	d10d      	bne.n	8002696 <HAL_RCC_OscConfig+0x3d2>
 800267a:	4a46      	ldr	r2, [pc, #280]	; (8002794 <HAL_RCC_OscConfig+0x4d0>)
 800267c:	4b45      	ldr	r3, [pc, #276]	; (8002794 <HAL_RCC_OscConfig+0x4d0>)
 800267e:	6d9b      	ldr	r3, [r3, #88]	; 0x58
 8002680:	f043 5380 	orr.w	r3, r3, #268435456	; 0x10000000
 8002684:	6593      	str	r3, [r2, #88]	; 0x58
 8002686:	4b43      	ldr	r3, [pc, #268]	; (8002794 <HAL_RCC_OscConfig+0x4d0>)
 8002688:	6d9b      	ldr	r3, [r3, #88]	; 0x58
 800268a:	f003 5380 	and.w	r3, r3, #268435456	; 0x10000000
 800268e:	60bb      	str	r3, [r7, #8]
 8002690:	68bb      	ldr	r3, [r7, #8]
 8002692:	2301      	movs	r3, #1
 8002694:	77fb      	strb	r3, [r7, #31]
 8002696:	4b40      	ldr	r3, [pc, #256]	; (8002798 <HAL_RCC_OscConfig+0x4d4>)
 8002698:	681b      	ldr	r3, [r3, #0]
 800269a:	f403 7380 	and.w	r3, r3, #256	; 0x100
 800269e:	2b00      	cmp	r3, #0
 80026a0:	d10c      	bne.n	80026bc <HAL_RCC_OscConfig+0x3f8>
 80026a2:	4a3d      	ldr	r2, [pc, #244]	; (8002798 <HAL_RCC_OscConfig+0x4d4>)
 80026a4:	4b3c      	ldr	r3, [pc, #240]	; (8002798 <HAL_RCC_OscConfig+0x4d4>)
 80026a6:	681b      	ldr	r3, [r3, #0]
 80026a8:	f443 7380 	orr.w	r3, r3, #256	; 0x100
 80026ac:	6013      	str	r3, [r2, #0]
 80026ae:	bf00      	nop
 80026b0:	4b39      	ldr	r3, [pc, #228]	; (8002798 <HAL_RCC_OscConfig+0x4d4>)
 80026b2:	681b      	ldr	r3, [r3, #0]
 80026b4:	f403 7380 	and.w	r3, r3, #256	; 0x100
 80026b8:	2b00      	cmp	r3, #0
 80026ba:	d0f9      	beq.n	80026b0 <HAL_RCC_OscConfig+0x3ec>
 80026bc:	687b      	ldr	r3, [r7, #4]
 80026be:	689b      	ldr	r3, [r3, #8]
 80026c0:	2b01      	cmp	r3, #1
 80026c2:	d108      	bne.n	80026d6 <HAL_RCC_OscConfig+0x412>
 80026c4:	4a33      	ldr	r2, [pc, #204]	; (8002794 <HAL_RCC_OscConfig+0x4d0>)
 80026c6:	4b33      	ldr	r3, [pc, #204]	; (8002794 <HAL_RCC_OscConfig+0x4d0>)
 80026c8:	f8d3 3090 	ldr.w	r3, [r3, #144]	; 0x90
 80026cc:	f043 0301 	orr.w	r3, r3, #1
 80026d0:	f8c2 3090 	str.w	r3, [r2, #144]	; 0x90
 80026d4:	e024      	b.n	8002720 <HAL_RCC_OscConfig+0x45c>
 80026d6:	687b      	ldr	r3, [r7, #4]
 80026d8:	689b      	ldr	r3, [r3, #8]
 80026da:	2b05      	cmp	r3, #5
 80026dc:	d110      	bne.n	8002700 <HAL_RCC_OscConfig+0x43c>
 80026de:	4a2d      	ldr	r2, [pc, #180]	; (8002794 <HAL_RCC_OscConfig+0x4d0>)
 80026e0:	4b2c      	ldr	r3, [pc, #176]	; (8002794 <HAL_RCC_OscConfig+0x4d0>)
 80026e2:	f8d3 3090 	ldr.w	r3, [r3, #144]	; 0x90
 80026e6:	f043 0304 	orr.w	r3, r3, #4
 80026ea:	f8c2 3090 	str.w	r3, [r2, #144]	; 0x90
 80026ee:	4a29      	ldr	r2, [pc, #164]	; (8002794 <HAL_RCC_OscConfig+0x4d0>)
 80026f0:	4b28      	ldr	r3, [pc, #160]	; (8002794 <HAL_RCC_OscConfig+0x4d0>)
 80026f2:	f8d3 3090 	ldr.w	r3, [r3, #144]	; 0x90
 80026f6:	f043 0301 	orr.w	r3, r3, #1
 80026fa:	f8c2 3090 	str.w	r3, [r2, #144]	; 0x90
 80026fe:	e00f      	b.n	8002720 <HAL_RCC_OscConfig+0x45c>
 8002700:	4a24      	ldr	r2, [pc, #144]	; (8002794 <HAL_RCC_OscConfig+0x4d0>)
 8002702:	4b24      	ldr	r3, [pc, #144]	; (8002794 <HAL_RCC_OscConfig+0x4d0>)
 8002704:	f8d3 3090 	ldr.w	r3, [r3, #144]	; 0x90
 8002708:	f023 0301 	bic.w	r3, r3, #1
 800270c:	f8c2 3090 	str.w	r3, [r2, #144]	; 0x90
 8002710:	4a20      	ldr	r2, [pc, #128]	; (8002794 <HAL_RCC_OscConfig+0x4d0>)
 8002712:	4b20      	ldr	r3, [pc, #128]	; (8002794 <HAL_RCC_OscConfig+0x4d0>)
 8002714:	f8d3 3090 	ldr.w	r3, [r3, #144]	; 0x90
 8002718:	f023 0304 	bic.w	r3, r3, #4
 800271c:	f8c2 3090 	str.w	r3, [r2, #144]	; 0x90
 8002720:	687b      	ldr	r3, [r7, #4]
 8002722:	689b      	ldr	r3, [r3, #8]
 8002724:	2b00      	cmp	r3, #0
 8002726:	d008      	beq.n	800273a <HAL_RCC_OscConfig+0x476>
 8002728:	bf00      	nop
 800272a:	4b1a      	ldr	r3, [pc, #104]	; (8002794 <HAL_RCC_OscConfig+0x4d0>)
 800272c:	f8d3 3090 	ldr.w	r3, [r3, #144]	; 0x90
 8002730:	f003 0302 	and.w	r3, r3, #2
 8002734:	2b00      	cmp	r3, #0
 8002736:	d0f8      	beq.n	800272a <HAL_RCC_OscConfig+0x466>
 8002738:	e007      	b.n	800274a <HAL_RCC_OscConfig+0x486>
 800273a:	bf00      	nop
 800273c:	4b15      	ldr	r3, [pc, #84]	; (8002794 <HAL_RCC_OscConfig+0x4d0>)
 800273e:	f8d3 3090 	ldr.w	r3, [r3, #144]	; 0x90
 8002742:	f003 0302 	and.w	r3, r3, #2
 8002746:	2b00      	cmp	r3, #0
 8002748:	d1f8      	bne.n	800273c <HAL_RCC_OscConfig+0x478>
 800274a:	7ffb      	ldrb	r3, [r7, #31]
 800274c:	2b01      	cmp	r3, #1
 800274e:	d105      	bne.n	800275c <HAL_RCC_OscConfig+0x498>
 8002750:	4a10      	ldr	r2, [pc, #64]	; (8002794 <HAL_RCC_OscConfig+0x4d0>)
 8002752:	4b10      	ldr	r3, [pc, #64]	; (8002794 <HAL_RCC_OscConfig+0x4d0>)
 8002754:	6d9b      	ldr	r3, [r3, #88]	; 0x58
 8002756:	f023 5380 	bic.w	r3, r3, #268435456	; 0x10000000
 800275a:	6593      	str	r3, [r2, #88]	; 0x58
 800275c:	687b      	ldr	r3, [r7, #4]
 800275e:	681b      	ldr	r3, [r3, #0]
 8002760:	f003 0320 	and.w	r3, r3, #32
 8002764:	2b00      	cmp	r3, #0
 8002766:	d029      	beq.n	80027bc <HAL_RCC_OscConfig+0x4f8>
 8002768:	687b      	ldr	r3, [r7, #4]
 800276a:	6a5b      	ldr	r3, [r3, #36]	; 0x24
 800276c:	2b00      	cmp	r3, #0
 800276e:	d015      	beq.n	800279c <HAL_RCC_OscConfig+0x4d8>
 8002770:	4a08      	ldr	r2, [pc, #32]	; (8002794 <HAL_RCC_OscConfig+0x4d0>)
 8002772:	4b08      	ldr	r3, [pc, #32]	; (8002794 <HAL_RCC_OscConfig+0x4d0>)
 8002774:	f8d3 3098 	ldr.w	r3, [r3, #152]	; 0x98
 8002778:	f043 0301 	orr.w	r3, r3, #1
 800277c:	f8c2 3098 	str.w	r3, [r2, #152]	; 0x98
 8002780:	bf00      	nop
 8002782:	4b04      	ldr	r3, [pc, #16]	; (8002794 <HAL_RCC_OscConfig+0x4d0>)
 8002784:	f8d3 3098 	ldr.w	r3, [r3, #152]	; 0x98
 8002788:	f003 0302 	and.w	r3, r3, #2
 800278c:	2b00      	cmp	r3, #0
 800278e:	d0f8      	beq.n	8002782 <HAL_RCC_OscConfig+0x4be>
 8002790:	e014      	b.n	80027bc <HAL_RCC_OscConfig+0x4f8>
 8002792:	bf00      	nop
 8002794:	40021000 	andmi	r1, r2, r0
 8002798:	40007000 	andmi	r7, r0, r0
 800279c:	4a6f      	ldr	r2, [pc, #444]	; (800295c <HAL_RCC_OscConfig+0x698>)
 800279e:	4b6f      	ldr	r3, [pc, #444]	; (800295c <HAL_RCC_OscConfig+0x698>)
 80027a0:	f8d3 3098 	ldr.w	r3, [r3, #152]	; 0x98
 80027a4:	f023 0301 	bic.w	r3, r3, #1
 80027a8:	f8c2 3098 	str.w	r3, [r2, #152]	; 0x98
 80027ac:	bf00      	nop
 80027ae:	4b6b      	ldr	r3, [pc, #428]	; (800295c <HAL_RCC_OscConfig+0x698>)
 80027b0:	f8d3 3098 	ldr.w	r3, [r3, #152]	; 0x98
 80027b4:	f003 0302 	and.w	r3, r3, #2
 80027b8:	2b00      	cmp	r3, #0
 80027ba:	d1f8      	bne.n	80027ae <HAL_RCC_OscConfig+0x4ea>
 80027bc:	687b      	ldr	r3, [r7, #4]
 80027be:	6a9b      	ldr	r3, [r3, #40]	; 0x28
 80027c0:	2b00      	cmp	r3, #0
 80027c2:	f000 80c5 	beq.w	8002950 <HAL_RCC_OscConfig+0x68c>
 80027c6:	687b      	ldr	r3, [r7, #4]
 80027c8:	6a9b      	ldr	r3, [r3, #40]	; 0x28
 80027ca:	2b02      	cmp	r3, #2
 80027cc:	f040 80a7 	bne.w	800291e <HAL_RCC_OscConfig+0x65a>
 80027d0:	4b62      	ldr	r3, [pc, #392]	; (800295c <HAL_RCC_OscConfig+0x698>)
 80027d2:	68db      	ldr	r3, [r3, #12]
 80027d4:	617b      	str	r3, [r7, #20]
 80027d6:	697b      	ldr	r3, [r7, #20]
 80027d8:	f003 0203 	and.w	r2, r3, #3
 80027dc:	687b      	ldr	r3, [r7, #4]
 80027de:	6adb      	ldr	r3, [r3, #44]	; 0x2c
 80027e0:	429a      	cmp	r2, r3
 80027e2:	d12c      	bne.n	800283e <HAL_RCC_OscConfig+0x57a>
 80027e4:	697b      	ldr	r3, [r7, #20]
 80027e6:	f003 02f0 	and.w	r2, r3, #240	; 0xf0
 80027ea:	687b      	ldr	r3, [r7, #4]
 80027ec:	6b1b      	ldr	r3, [r3, #48]	; 0x30
 80027ee:	3b01      	subs	r3, #1
 80027f0:	011b      	lsls	r3, r3, #4
 80027f2:	429a      	cmp	r2, r3
 80027f4:	d123      	bne.n	800283e <HAL_RCC_OscConfig+0x57a>
 80027f6:	697b      	ldr	r3, [r7, #20]
 80027f8:	f403 42fe 	and.w	r2, r3, #32512	; 0x7f00
 80027fc:	687b      	ldr	r3, [r7, #4]
 80027fe:	6b5b      	ldr	r3, [r3, #52]	; 0x34
 8002800:	021b      	lsls	r3, r3, #8
 8002802:	429a      	cmp	r2, r3
 8002804:	d11b      	bne.n	800283e <HAL_RCC_OscConfig+0x57a>
 8002806:	697b      	ldr	r3, [r7, #20]
 8002808:	f003 4278 	and.w	r2, r3, #4160749568	; 0xf8000000
 800280c:	687b      	ldr	r3, [r7, #4]
 800280e:	6b9b      	ldr	r3, [r3, #56]	; 0x38
 8002810:	06db      	lsls	r3, r3, #27
 8002812:	429a      	cmp	r2, r3
 8002814:	d113      	bne.n	800283e <HAL_RCC_OscConfig+0x57a>
 8002816:	697b      	ldr	r3, [r7, #20]
 8002818:	f403 02c0 	and.w	r2, r3, #6291456	; 0x600000
 800281c:	687b      	ldr	r3, [r7, #4]
 800281e:	6bdb      	ldr	r3, [r3, #60]	; 0x3c
 8002820:	085b      	lsrs	r3, r3, #1
 8002822:	3b01      	subs	r3, #1
 8002824:	055b      	lsls	r3, r3, #21
 8002826:	429a      	cmp	r2, r3
 8002828:	d109      	bne.n	800283e <HAL_RCC_OscConfig+0x57a>
 800282a:	697b      	ldr	r3, [r7, #20]
 800282c:	f003 62c0 	and.w	r2, r3, #100663296	; 0x6000000
 8002830:	687b      	ldr	r3, [r7, #4]
 8002832:	6c1b      	ldr	r3, [r3, #64]	; 0x40
 8002834:	085b      	lsrs	r3, r3, #1
 8002836:	3b01      	subs	r3, #1
 8002838:	065b      	lsls	r3, r3, #25
 800283a:	429a      	cmp	r2, r3
 800283c:	d055      	beq.n	80028ea <HAL_RCC_OscConfig+0x626>
 800283e:	69bb      	ldr	r3, [r7, #24]
 8002840:	2b0c      	cmp	r3, #12
 8002842:	d050      	beq.n	80028e6 <HAL_RCC_OscConfig+0x622>
 8002844:	4b45      	ldr	r3, [pc, #276]	; (800295c <HAL_RCC_OscConfig+0x698>)
 8002846:	681b      	ldr	r3, [r3, #0]
 8002848:	f003 6380 	and.w	r3, r3, #67108864	; 0x4000000
 800284c:	2b00      	cmp	r3, #0
 800284e:	d105      	bne.n	800285c <HAL_RCC_OscConfig+0x598>
 8002850:	4b42      	ldr	r3, [pc, #264]	; (800295c <HAL_RCC_OscConfig+0x698>)
 8002852:	681b      	ldr	r3, [r3, #0]
 8002854:	f003 5380 	and.w	r3, r3, #268435456	; 0x10000000
 8002858:	2b00      	cmp	r3, #0
 800285a:	d001      	beq.n	8002860 <HAL_RCC_OscConfig+0x59c>
 800285c:	2301      	movs	r3, #1
 800285e:	e078      	b.n	8002952 <HAL_RCC_OscConfig+0x68e>
 8002860:	4a3e      	ldr	r2, [pc, #248]	; (800295c <HAL_RCC_OscConfig+0x698>)
 8002862:	4b3e      	ldr	r3, [pc, #248]	; (800295c <HAL_RCC_OscConfig+0x698>)
 8002864:	681b      	ldr	r3, [r3, #0]
 8002866:	f023 7380 	bic.w	r3, r3, #16777216	; 0x1000000
 800286a:	6013      	str	r3, [r2, #0]
 800286c:	bf00      	nop
 800286e:	4b3b      	ldr	r3, [pc, #236]	; (800295c <HAL_RCC_OscConfig+0x698>)
 8002870:	681b      	ldr	r3, [r3, #0]
 8002872:	f003 7300 	and.w	r3, r3, #33554432	; 0x2000000
 8002876:	2b00      	cmp	r3, #0
 8002878:	d1f9      	bne.n	800286e <HAL_RCC_OscConfig+0x5aa>
 800287a:	4838      	ldr	r0, [pc, #224]	; (800295c <HAL_RCC_OscConfig+0x698>)
 800287c:	4b37      	ldr	r3, [pc, #220]	; (800295c <HAL_RCC_OscConfig+0x698>)
 800287e:	68da      	ldr	r2, [r3, #12]
 8002880:	4b37      	ldr	r3, [pc, #220]	; (8002960 <HAL_RCC_OscConfig+0x69c>)
 8002882:	4013      	ands	r3, r2
 8002884:	687a      	ldr	r2, [r7, #4]
 8002886:	6ad1      	ldr	r1, [r2, #44]	; 0x2c
 8002888:	687a      	ldr	r2, [r7, #4]
 800288a:	6b12      	ldr	r2, [r2, #48]	; 0x30
 800288c:	3a01      	subs	r2, #1
 800288e:	0112      	lsls	r2, r2, #4
 8002890:	4311      	orrs	r1, r2
 8002892:	687a      	ldr	r2, [r7, #4]
 8002894:	6b52      	ldr	r2, [r2, #52]	; 0x34
 8002896:	0212      	lsls	r2, r2, #8
 8002898:	4311      	orrs	r1, r2
 800289a:	687a      	ldr	r2, [r7, #4]
 800289c:	6bd2      	ldr	r2, [r2, #60]	; 0x3c
 800289e:	0852      	lsrs	r2, r2, #1
 80028a0:	3a01      	subs	r2, #1
 80028a2:	0552      	lsls	r2, r2, #21
 80028a4:	4311      	orrs	r1, r2
 80028a6:	687a      	ldr	r2, [r7, #4]
 80028a8:	6c12      	ldr	r2, [r2, #64]	; 0x40
 80028aa:	0852      	lsrs	r2, r2, #1
 80028ac:	3a01      	subs	r2, #1
 80028ae:	0652      	lsls	r2, r2, #25
 80028b0:	4311      	orrs	r1, r2
 80028b2:	687a      	ldr	r2, [r7, #4]
 80028b4:	6b92      	ldr	r2, [r2, #56]	; 0x38
 80028b6:	06d2      	lsls	r2, r2, #27
 80028b8:	430a      	orrs	r2, r1
 80028ba:	4313      	orrs	r3, r2
 80028bc:	60c3      	str	r3, [r0, #12]
 80028be:	4a27      	ldr	r2, [pc, #156]	; (800295c <HAL_RCC_OscConfig+0x698>)
 80028c0:	4b26      	ldr	r3, [pc, #152]	; (800295c <HAL_RCC_OscConfig+0x698>)
 80028c2:	681b      	ldr	r3, [r3, #0]
 80028c4:	f043 7380 	orr.w	r3, r3, #16777216	; 0x1000000
 80028c8:	6013      	str	r3, [r2, #0]
 80028ca:	4a24      	ldr	r2, [pc, #144]	; (800295c <HAL_RCC_OscConfig+0x698>)
 80028cc:	4b23      	ldr	r3, [pc, #140]	; (800295c <HAL_RCC_OscConfig+0x698>)
 80028ce:	68db      	ldr	r3, [r3, #12]
 80028d0:	f043 7380 	orr.w	r3, r3, #16777216	; 0x1000000
 80028d4:	60d3      	str	r3, [r2, #12]
 80028d6:	bf00      	nop
 80028d8:	4b20      	ldr	r3, [pc, #128]	; (800295c <HAL_RCC_OscConfig+0x698>)
 80028da:	681b      	ldr	r3, [r3, #0]
 80028dc:	f003 7300 	and.w	r3, r3, #33554432	; 0x2000000
 80028e0:	2b00      	cmp	r3, #0
 80028e2:	d0f9      	beq.n	80028d8 <HAL_RCC_OscConfig+0x614>
 80028e4:	e034      	b.n	8002950 <HAL_RCC_OscConfig+0x68c>
 80028e6:	2301      	movs	r3, #1
 80028e8:	e033      	b.n	8002952 <HAL_RCC_OscConfig+0x68e>
 80028ea:	4b1c      	ldr	r3, [pc, #112]	; (800295c <HAL_RCC_OscConfig+0x698>)
 80028ec:	681b      	ldr	r3, [r3, #0]
 80028ee:	f003 7300 	and.w	r3, r3, #33554432	; 0x2000000
 80028f2:	2b00      	cmp	r3, #0
 80028f4:	d12c      	bne.n	8002950 <HAL_RCC_OscConfig+0x68c>
 80028f6:	4a19      	ldr	r2, [pc, #100]	; (800295c <HAL_RCC_OscConfig+0x698>)
 80028f8:	4b18      	ldr	r3, [pc, #96]	; (800295c <HAL_RCC_OscConfig+0x698>)
 80028fa:	681b      	ldr	r3, [r3, #0]
 80028fc:	f043 7380 	orr.w	r3, r3, #16777216	; 0x1000000
 8002900:	6013      	str	r3, [r2, #0]
 8002902:	4a16      	ldr	r2, [pc, #88]	; (800295c <HAL_RCC_OscConfig+0x698>)
 8002904:	4b15      	ldr	r3, [pc, #84]	; (800295c <HAL_RCC_OscConfig+0x698>)
 8002906:	68db      	ldr	r3, [r3, #12]
 8002908:	f043 7380 	orr.w	r3, r3, #16777216	; 0x1000000
 800290c:	60d3      	str	r3, [r2, #12]
 800290e:	bf00      	nop
 8002910:	4b12      	ldr	r3, [pc, #72]	; (800295c <HAL_RCC_OscConfig+0x698>)
 8002912:	681b      	ldr	r3, [r3, #0]
 8002914:	f003 7300 	and.w	r3, r3, #33554432	; 0x2000000
 8002918:	2b00      	cmp	r3, #0
 800291a:	d0f9      	beq.n	8002910 <HAL_RCC_OscConfig+0x64c>
 800291c:	e018      	b.n	8002950 <HAL_RCC_OscConfig+0x68c>
 800291e:	69bb      	ldr	r3, [r7, #24]
 8002920:	2b0c      	cmp	r3, #12
 8002922:	d013      	beq.n	800294c <HAL_RCC_OscConfig+0x688>
 8002924:	4a0d      	ldr	r2, [pc, #52]	; (800295c <HAL_RCC_OscConfig+0x698>)
 8002926:	4b0d      	ldr	r3, [pc, #52]	; (800295c <HAL_RCC_OscConfig+0x698>)
 8002928:	681b      	ldr	r3, [r3, #0]
 800292a:	f023 7380 	bic.w	r3, r3, #16777216	; 0x1000000
 800292e:	6013      	str	r3, [r2, #0]
 8002930:	bf00      	nop
 8002932:	4b0a      	ldr	r3, [pc, #40]	; (800295c <HAL_RCC_OscConfig+0x698>)
 8002934:	681b      	ldr	r3, [r3, #0]
 8002936:	f003 7300 	and.w	r3, r3, #33554432	; 0x2000000
 800293a:	2b00      	cmp	r3, #0
 800293c:	d1f9      	bne.n	8002932 <HAL_RCC_OscConfig+0x66e>
 800293e:	4907      	ldr	r1, [pc, #28]	; (800295c <HAL_RCC_OscConfig+0x698>)
 8002940:	4b06      	ldr	r3, [pc, #24]	; (800295c <HAL_RCC_OscConfig+0x698>)
 8002942:	68da      	ldr	r2, [r3, #12]
 8002944:	4b07      	ldr	r3, [pc, #28]	; (8002964 <HAL_RCC_OscConfig+0x6a0>)
 8002946:	4013      	ands	r3, r2
 8002948:	60cb      	str	r3, [r1, #12]
 800294a:	e001      	b.n	8002950 <HAL_RCC_OscConfig+0x68c>
 800294c:	2301      	movs	r3, #1
 800294e:	e000      	b.n	8002952 <HAL_RCC_OscConfig+0x68e>
 8002950:	2300      	movs	r3, #0
 8002952:	4618      	mov	r0, r3
 8002954:	3720      	adds	r7, #32
 8002956:	46bd      	mov	sp, r7
 8002958:	bd80      	pop	{r7, pc}
 800295a:	bf00      	nop
 800295c:	40021000 	andmi	r1, r2, r0
 8002960:	019d800c 	orrseq	r8, sp, ip
 8002964:	feeefffc 	mcr2	15, 7, pc, cr14, cr12, {7}	; <UNPREDICTABLE>

08002968 <HAL_RCC_ClockConfig>:
 8002968:	b580      	push	{r7, lr}
 800296a:	b084      	sub	sp, #16
 800296c:	af00      	add	r7, sp, #0
 800296e:	6078      	str	r0, [r7, #4]
 8002970:	6039      	str	r1, [r7, #0]
 8002972:	2300      	movs	r3, #0
 8002974:	60fb      	str	r3, [r7, #12]
 8002976:	687b      	ldr	r3, [r7, #4]
 8002978:	2b00      	cmp	r3, #0
 800297a:	d101      	bne.n	8002980 <HAL_RCC_ClockConfig+0x18>
 800297c:	2301      	movs	r3, #1
 800297e:	e10a      	b.n	8002b96 <HAL_RCC_ClockConfig+0x22e>
 8002980:	4b87      	ldr	r3, [pc, #540]	; (8002ba0 <HAL_RCC_ClockConfig+0x238>)
 8002982:	681b      	ldr	r3, [r3, #0]
 8002984:	f003 020f 	and.w	r2, r3, #15
 8002988:	683b      	ldr	r3, [r7, #0]
 800298a:	429a      	cmp	r2, r3
 800298c:	d210      	bcs.n	80029b0 <HAL_RCC_ClockConfig+0x48>
 800298e:	4984      	ldr	r1, [pc, #528]	; (8002ba0 <HAL_RCC_ClockConfig+0x238>)
 8002990:	4b83      	ldr	r3, [pc, #524]	; (8002ba0 <HAL_RCC_ClockConfig+0x238>)
 8002992:	681b      	ldr	r3, [r3, #0]
 8002994:	f023 020f 	bic.w	r2, r3, #15
 8002998:	683b      	ldr	r3, [r7, #0]
 800299a:	4313      	orrs	r3, r2
 800299c:	600b      	str	r3, [r1, #0]
 800299e:	4b80      	ldr	r3, [pc, #512]	; (8002ba0 <HAL_RCC_ClockConfig+0x238>)
 80029a0:	681b      	ldr	r3, [r3, #0]
 80029a2:	f003 020f 	and.w	r2, r3, #15
 80029a6:	683b      	ldr	r3, [r7, #0]
 80029a8:	429a      	cmp	r2, r3
 80029aa:	d001      	beq.n	80029b0 <HAL_RCC_ClockConfig+0x48>
 80029ac:	2301      	movs	r3, #1
 80029ae:	e0f2      	b.n	8002b96 <HAL_RCC_ClockConfig+0x22e>
 80029b0:	687b      	ldr	r3, [r7, #4]
 80029b2:	681b      	ldr	r3, [r3, #0]
 80029b4:	f003 0302 	and.w	r3, r3, #2
 80029b8:	2b00      	cmp	r3, #0
 80029ba:	d010      	beq.n	80029de <HAL_RCC_ClockConfig+0x76>
 80029bc:	687b      	ldr	r3, [r7, #4]
 80029be:	689a      	ldr	r2, [r3, #8]
 80029c0:	4b78      	ldr	r3, [pc, #480]	; (8002ba4 <HAL_RCC_ClockConfig+0x23c>)
 80029c2:	689b      	ldr	r3, [r3, #8]
 80029c4:	f003 03f0 	and.w	r3, r3, #240	; 0xf0
 80029c8:	429a      	cmp	r2, r3
 80029ca:	d908      	bls.n	80029de <HAL_RCC_ClockConfig+0x76>
 80029cc:	4975      	ldr	r1, [pc, #468]	; (8002ba4 <HAL_RCC_ClockConfig+0x23c>)
 80029ce:	4b75      	ldr	r3, [pc, #468]	; (8002ba4 <HAL_RCC_ClockConfig+0x23c>)
 80029d0:	689b      	ldr	r3, [r3, #8]
 80029d2:	f023 02f0 	bic.w	r2, r3, #240	; 0xf0
 80029d6:	687b      	ldr	r3, [r7, #4]
 80029d8:	689b      	ldr	r3, [r3, #8]
 80029da:	4313      	orrs	r3, r2
 80029dc:	608b      	str	r3, [r1, #8]
 80029de:	687b      	ldr	r3, [r7, #4]
 80029e0:	681b      	ldr	r3, [r3, #0]
 80029e2:	f003 0301 	and.w	r3, r3, #1
 80029e6:	2b00      	cmp	r3, #0
 80029e8:	d06b      	beq.n	8002ac2 <HAL_RCC_ClockConfig+0x15a>
 80029ea:	687b      	ldr	r3, [r7, #4]
 80029ec:	685b      	ldr	r3, [r3, #4]
 80029ee:	2b03      	cmp	r3, #3
 80029f0:	d11e      	bne.n	8002a30 <HAL_RCC_ClockConfig+0xc8>
 80029f2:	4b6c      	ldr	r3, [pc, #432]	; (8002ba4 <HAL_RCC_ClockConfig+0x23c>)
 80029f4:	681b      	ldr	r3, [r3, #0]
 80029f6:	f003 7300 	and.w	r3, r3, #33554432	; 0x2000000
 80029fa:	2b00      	cmp	r3, #0
 80029fc:	d101      	bne.n	8002a02 <HAL_RCC_ClockConfig+0x9a>
 80029fe:	2301      	movs	r3, #1
 8002a00:	e0c9      	b.n	8002b96 <HAL_RCC_ClockConfig+0x22e>
 8002a02:	f000 f9f3 	bl	8002dec <RCC_GetSysClockFreqFromPLLSource>
 8002a06:	4602      	mov	r2, r0
 8002a08:	4b67      	ldr	r3, [pc, #412]	; (8002ba8 <HAL_RCC_ClockConfig+0x240>)
 8002a0a:	429a      	cmp	r2, r3
 8002a0c:	d946      	bls.n	8002a9c <HAL_RCC_ClockConfig+0x134>
 8002a0e:	4b65      	ldr	r3, [pc, #404]	; (8002ba4 <HAL_RCC_ClockConfig+0x23c>)
 8002a10:	689b      	ldr	r3, [r3, #8]
 8002a12:	f003 03f0 	and.w	r3, r3, #240	; 0xf0
 8002a16:	2b00      	cmp	r3, #0
 8002a18:	d140      	bne.n	8002a9c <HAL_RCC_ClockConfig+0x134>
 8002a1a:	4a62      	ldr	r2, [pc, #392]	; (8002ba4 <HAL_RCC_ClockConfig+0x23c>)
 8002a1c:	4b61      	ldr	r3, [pc, #388]	; (8002ba4 <HAL_RCC_ClockConfig+0x23c>)
 8002a1e:	689b      	ldr	r3, [r3, #8]
 8002a20:	f023 03f0 	bic.w	r3, r3, #240	; 0xf0
 8002a24:	f043 0380 	orr.w	r3, r3, #128	; 0x80
 8002a28:	6093      	str	r3, [r2, #8]
 8002a2a:	2380      	movs	r3, #128	; 0x80
 8002a2c:	60fb      	str	r3, [r7, #12]
 8002a2e:	e035      	b.n	8002a9c <HAL_RCC_ClockConfig+0x134>
 8002a30:	687b      	ldr	r3, [r7, #4]
 8002a32:	685b      	ldr	r3, [r3, #4]
 8002a34:	2b02      	cmp	r3, #2
 8002a36:	d107      	bne.n	8002a48 <HAL_RCC_ClockConfig+0xe0>
 8002a38:	4b5a      	ldr	r3, [pc, #360]	; (8002ba4 <HAL_RCC_ClockConfig+0x23c>)
 8002a3a:	681b      	ldr	r3, [r3, #0]
 8002a3c:	f403 3300 	and.w	r3, r3, #131072	; 0x20000
 8002a40:	2b00      	cmp	r3, #0
 8002a42:	d115      	bne.n	8002a70 <HAL_RCC_ClockConfig+0x108>
 8002a44:	2301      	movs	r3, #1
 8002a46:	e0a6      	b.n	8002b96 <HAL_RCC_ClockConfig+0x22e>
 8002a48:	687b      	ldr	r3, [r7, #4]
 8002a4a:	685b      	ldr	r3, [r3, #4]
 8002a4c:	2b00      	cmp	r3, #0
 8002a4e:	d107      	bne.n	8002a60 <HAL_RCC_ClockConfig+0xf8>
 8002a50:	4b54      	ldr	r3, [pc, #336]	; (8002ba4 <HAL_RCC_ClockConfig+0x23c>)
 8002a52:	681b      	ldr	r3, [r3, #0]
 8002a54:	f003 0302 	and.w	r3, r3, #2
 8002a58:	2b00      	cmp	r3, #0
 8002a5a:	d109      	bne.n	8002a70 <HAL_RCC_ClockConfig+0x108>
 8002a5c:	2301      	movs	r3, #1
 8002a5e:	e09a      	b.n	8002b96 <HAL_RCC_ClockConfig+0x22e>
 8002a60:	4b50      	ldr	r3, [pc, #320]	; (8002ba4 <HAL_RCC_ClockConfig+0x23c>)
 8002a62:	681b      	ldr	r3, [r3, #0]
 8002a64:	f403 6380 	and.w	r3, r3, #1024	; 0x400
 8002a68:	2b00      	cmp	r3, #0
 8002a6a:	d101      	bne.n	8002a70 <HAL_RCC_ClockConfig+0x108>
 8002a6c:	2301      	movs	r3, #1
 8002a6e:	e092      	b.n	8002b96 <HAL_RCC_ClockConfig+0x22e>
 8002a70:	f000 f8a0 	bl	8002bb4 <HAL_RCC_GetSysClockFreq>
 8002a74:	4602      	mov	r2, r0
 8002a76:	4b4c      	ldr	r3, [pc, #304]	; (8002ba8 <HAL_RCC_ClockConfig+0x240>)
 8002a78:	429a      	cmp	r2, r3
 8002a7a:	d90f      	bls.n	8002a9c <HAL_RCC_ClockConfig+0x134>
 8002a7c:	4b49      	ldr	r3, [pc, #292]	; (8002ba4 <HAL_RCC_ClockConfig+0x23c>)
 8002a7e:	689b      	ldr	r3, [r3, #8]
 8002a80:	f003 03f0 	and.w	r3, r3, #240	; 0xf0
 8002a84:	2b00      	cmp	r3, #0
 8002a86:	d109      	bne.n	8002a9c <HAL_RCC_ClockConfig+0x134>
 8002a88:	4a46      	ldr	r2, [pc, #280]	; (8002ba4 <HAL_RCC_ClockConfig+0x23c>)
 8002a8a:	4b46      	ldr	r3, [pc, #280]	; (8002ba4 <HAL_RCC_ClockConfig+0x23c>)
 8002a8c:	689b      	ldr	r3, [r3, #8]
 8002a8e:	f023 03f0 	bic.w	r3, r3, #240	; 0xf0
 8002a92:	f043 0380 	orr.w	r3, r3, #128	; 0x80
 8002a96:	6093      	str	r3, [r2, #8]
 8002a98:	2380      	movs	r3, #128	; 0x80
 8002a9a:	60fb      	str	r3, [r7, #12]
 8002a9c:	4941      	ldr	r1, [pc, #260]	; (8002ba4 <HAL_RCC_ClockConfig+0x23c>)
 8002a9e:	4b41      	ldr	r3, [pc, #260]	; (8002ba4 <HAL_RCC_ClockConfig+0x23c>)
 8002aa0:	689b      	ldr	r3, [r3, #8]
 8002aa2:	f023 0203 	bic.w	r2, r3, #3
 8002aa6:	687b      	ldr	r3, [r7, #4]
 8002aa8:	685b      	ldr	r3, [r3, #4]
 8002aaa:	4313      	orrs	r3, r2
 8002aac:	608b      	str	r3, [r1, #8]
 8002aae:	bf00      	nop
 8002ab0:	4b3c      	ldr	r3, [pc, #240]	; (8002ba4 <HAL_RCC_ClockConfig+0x23c>)
 8002ab2:	689b      	ldr	r3, [r3, #8]
 8002ab4:	f003 020c 	and.w	r2, r3, #12
 8002ab8:	687b      	ldr	r3, [r7, #4]
 8002aba:	685b      	ldr	r3, [r3, #4]
 8002abc:	009b      	lsls	r3, r3, #2
 8002abe:	429a      	cmp	r2, r3
 8002ac0:	d1f6      	bne.n	8002ab0 <HAL_RCC_ClockConfig+0x148>
 8002ac2:	68fb      	ldr	r3, [r7, #12]
 8002ac4:	2b80      	cmp	r3, #128	; 0x80
 8002ac6:	d105      	bne.n	8002ad4 <HAL_RCC_ClockConfig+0x16c>
 8002ac8:	4a36      	ldr	r2, [pc, #216]	; (8002ba4 <HAL_RCC_ClockConfig+0x23c>)
 8002aca:	4b36      	ldr	r3, [pc, #216]	; (8002ba4 <HAL_RCC_ClockConfig+0x23c>)
 8002acc:	689b      	ldr	r3, [r3, #8]
 8002ace:	f023 03f0 	bic.w	r3, r3, #240	; 0xf0
 8002ad2:	6093      	str	r3, [r2, #8]
 8002ad4:	687b      	ldr	r3, [r7, #4]
 8002ad6:	681b      	ldr	r3, [r3, #0]
 8002ad8:	f003 0302 	and.w	r3, r3, #2
 8002adc:	2b00      	cmp	r3, #0
 8002ade:	d010      	beq.n	8002b02 <HAL_RCC_ClockConfig+0x19a>
 8002ae0:	687b      	ldr	r3, [r7, #4]
 8002ae2:	689a      	ldr	r2, [r3, #8]
 8002ae4:	4b2f      	ldr	r3, [pc, #188]	; (8002ba4 <HAL_RCC_ClockConfig+0x23c>)
 8002ae6:	689b      	ldr	r3, [r3, #8]
 8002ae8:	f003 03f0 	and.w	r3, r3, #240	; 0xf0
 8002aec:	429a      	cmp	r2, r3
 8002aee:	d208      	bcs.n	8002b02 <HAL_RCC_ClockConfig+0x19a>
 8002af0:	492c      	ldr	r1, [pc, #176]	; (8002ba4 <HAL_RCC_ClockConfig+0x23c>)
 8002af2:	4b2c      	ldr	r3, [pc, #176]	; (8002ba4 <HAL_RCC_ClockConfig+0x23c>)
 8002af4:	689b      	ldr	r3, [r3, #8]
 8002af6:	f023 02f0 	bic.w	r2, r3, #240	; 0xf0
 8002afa:	687b      	ldr	r3, [r7, #4]
 8002afc:	689b      	ldr	r3, [r3, #8]
 8002afe:	4313      	orrs	r3, r2
 8002b00:	608b      	str	r3, [r1, #8]
 8002b02:	4b27      	ldr	r3, [pc, #156]	; (8002ba0 <HAL_RCC_ClockConfig+0x238>)
 8002b04:	681b      	ldr	r3, [r3, #0]
 8002b06:	f003 020f 	and.w	r2, r3, #15
 8002b0a:	683b      	ldr	r3, [r7, #0]
 8002b0c:	429a      	cmp	r2, r3
 8002b0e:	d910      	bls.n	8002b32 <HAL_RCC_ClockConfig+0x1ca>
 8002b10:	4923      	ldr	r1, [pc, #140]	; (8002ba0 <HAL_RCC_ClockConfig+0x238>)
 8002b12:	4b23      	ldr	r3, [pc, #140]	; (8002ba0 <HAL_RCC_ClockConfig+0x238>)
 8002b14:	681b      	ldr	r3, [r3, #0]
 8002b16:	f023 020f 	bic.w	r2, r3, #15
 8002b1a:	683b      	ldr	r3, [r7, #0]
 8002b1c:	4313      	orrs	r3, r2
 8002b1e:	600b      	str	r3, [r1, #0]
 8002b20:	4b1f      	ldr	r3, [pc, #124]	; (8002ba0 <HAL_RCC_ClockConfig+0x238>)
 8002b22:	681b      	ldr	r3, [r3, #0]
 8002b24:	f003 020f 	and.w	r2, r3, #15
 8002b28:	683b      	ldr	r3, [r7, #0]
 8002b2a:	429a      	cmp	r2, r3
 8002b2c:	d001      	beq.n	8002b32 <HAL_RCC_ClockConfig+0x1ca>
 8002b2e:	2301      	movs	r3, #1
 8002b30:	e031      	b.n	8002b96 <HAL_RCC_ClockConfig+0x22e>
 8002b32:	687b      	ldr	r3, [r7, #4]
 8002b34:	681b      	ldr	r3, [r3, #0]
 8002b36:	f003 0304 	and.w	r3, r3, #4
 8002b3a:	2b00      	cmp	r3, #0
 8002b3c:	d008      	beq.n	8002b50 <HAL_RCC_ClockConfig+0x1e8>
 8002b3e:	4919      	ldr	r1, [pc, #100]	; (8002ba4 <HAL_RCC_ClockConfig+0x23c>)
 8002b40:	4b18      	ldr	r3, [pc, #96]	; (8002ba4 <HAL_RCC_ClockConfig+0x23c>)
 8002b42:	689b      	ldr	r3, [r3, #8]
 8002b44:	f423 62e0 	bic.w	r2, r3, #1792	; 0x700
 8002b48:	687b      	ldr	r3, [r7, #4]
 8002b4a:	68db      	ldr	r3, [r3, #12]
 8002b4c:	4313      	orrs	r3, r2
 8002b4e:	608b      	str	r3, [r1, #8]
 8002b50:	687b      	ldr	r3, [r7, #4]
 8002b52:	681b      	ldr	r3, [r3, #0]
 8002b54:	f003 0308 	and.w	r3, r3, #8
 8002b58:	2b00      	cmp	r3, #0
 8002b5a:	d009      	beq.n	8002b70 <HAL_RCC_ClockConfig+0x208>
 8002b5c:	4911      	ldr	r1, [pc, #68]	; (8002ba4 <HAL_RCC_ClockConfig+0x23c>)
 8002b5e:	4b11      	ldr	r3, [pc, #68]	; (8002ba4 <HAL_RCC_ClockConfig+0x23c>)
 8002b60:	689b      	ldr	r3, [r3, #8]
 8002b62:	f423 5260 	bic.w	r2, r3, #14336	; 0x3800
 8002b66:	687b      	ldr	r3, [r7, #4]
 8002b68:	691b      	ldr	r3, [r3, #16]
 8002b6a:	00db      	lsls	r3, r3, #3
 8002b6c:	4313      	orrs	r3, r2
 8002b6e:	608b      	str	r3, [r1, #8]
 8002b70:	f000 f820 	bl	8002bb4 <HAL_RCC_GetSysClockFreq>
 8002b74:	4601      	mov	r1, r0
 8002b76:	4b0b      	ldr	r3, [pc, #44]	; (8002ba4 <HAL_RCC_ClockConfig+0x23c>)
 8002b78:	689b      	ldr	r3, [r3, #8]
 8002b7a:	091b      	lsrs	r3, r3, #4
 8002b7c:	f003 030f 	and.w	r3, r3, #15
 8002b80:	4a0a      	ldr	r2, [pc, #40]	; (8002bac <HAL_RCC_ClockConfig+0x244>)
 8002b82:	5cd3      	ldrb	r3, [r2, r3]
 8002b84:	f003 031f 	and.w	r3, r3, #31
 8002b88:	fa21 f303 	lsr.w	r3, r1, r3
 8002b8c:	4a08      	ldr	r2, [pc, #32]	; (8002bb0 <HAL_RCC_ClockConfig+0x248>)
 8002b8e:	6013      	str	r3, [r2, #0]
 8002b90:	2300      	movs	r3, #0
 8002b92:	72fb      	strb	r3, [r7, #11]
 8002b94:	7afb      	ldrb	r3, [r7, #11]
 8002b96:	4618      	mov	r0, r3
 8002b98:	3710      	adds	r7, #16
 8002b9a:	46bd      	mov	sp, r7
 8002b9c:	bd80      	pop	{r7, pc}
 8002b9e:	bf00      	nop
 8002ba0:	40022000 	andmi	r2, r2, r0
 8002ba4:	40021000 	andmi	r1, r2, r0
 8002ba8:	04c4b400 	strbeq	fp, [r4], #1024	; 0x400
 8002bac:	0800b51c 	stmdaeq	r0, {r2, r3, r4, r8, sl, ip, sp, pc}
 8002bb0:	20040078 	andcs	r0, r4, r8, ror r0

08002bb4 <HAL_RCC_GetSysClockFreq>:
 8002bb4:	b480      	push	{r7}
 8002bb6:	b089      	sub	sp, #36	; 0x24
 8002bb8:	af00      	add	r7, sp, #0
 8002bba:	2300      	movs	r3, #0
 8002bbc:	61fb      	str	r3, [r7, #28]
 8002bbe:	2300      	movs	r3, #0
 8002bc0:	61bb      	str	r3, [r7, #24]
 8002bc2:	4b3d      	ldr	r3, [pc, #244]	; (8002cb8 <HAL_RCC_GetSysClockFreq+0x104>)
 8002bc4:	689b      	ldr	r3, [r3, #8]
 8002bc6:	f003 030c 	and.w	r3, r3, #12
 8002bca:	613b      	str	r3, [r7, #16]
 8002bcc:	4b3a      	ldr	r3, [pc, #232]	; (8002cb8 <HAL_RCC_GetSysClockFreq+0x104>)
 8002bce:	68db      	ldr	r3, [r3, #12]
 8002bd0:	f003 0303 	and.w	r3, r3, #3
 8002bd4:	60fb      	str	r3, [r7, #12]
 8002bd6:	693b      	ldr	r3, [r7, #16]
 8002bd8:	2b00      	cmp	r3, #0
 8002bda:	d005      	beq.n	8002be8 <HAL_RCC_GetSysClockFreq+0x34>
 8002bdc:	693b      	ldr	r3, [r7, #16]
 8002bde:	2b0c      	cmp	r3, #12
 8002be0:	d121      	bne.n	8002c26 <HAL_RCC_GetSysClockFreq+0x72>
 8002be2:	68fb      	ldr	r3, [r7, #12]
 8002be4:	2b01      	cmp	r3, #1
 8002be6:	d11e      	bne.n	8002c26 <HAL_RCC_GetSysClockFreq+0x72>
 8002be8:	4b33      	ldr	r3, [pc, #204]	; (8002cb8 <HAL_RCC_GetSysClockFreq+0x104>)
 8002bea:	681b      	ldr	r3, [r3, #0]
 8002bec:	f003 0308 	and.w	r3, r3, #8
 8002bf0:	2b00      	cmp	r3, #0
 8002bf2:	d107      	bne.n	8002c04 <HAL_RCC_GetSysClockFreq+0x50>
 8002bf4:	4b30      	ldr	r3, [pc, #192]	; (8002cb8 <HAL_RCC_GetSysClockFreq+0x104>)
 8002bf6:	f8d3 3094 	ldr.w	r3, [r3, #148]	; 0x94
 8002bfa:	0a1b      	lsrs	r3, r3, #8
 8002bfc:	f003 030f 	and.w	r3, r3, #15
 8002c00:	61fb      	str	r3, [r7, #28]
 8002c02:	e005      	b.n	8002c10 <HAL_RCC_GetSysClockFreq+0x5c>
 8002c04:	4b2c      	ldr	r3, [pc, #176]	; (8002cb8 <HAL_RCC_GetSysClockFreq+0x104>)
 8002c06:	681b      	ldr	r3, [r3, #0]
 8002c08:	091b      	lsrs	r3, r3, #4
 8002c0a:	f003 030f 	and.w	r3, r3, #15
 8002c0e:	61fb      	str	r3, [r7, #28]
 8002c10:	4a2a      	ldr	r2, [pc, #168]	; (8002cbc <HAL_RCC_GetSysClockFreq+0x108>)
 8002c12:	69fb      	ldr	r3, [r7, #28]
 8002c14:	f852 3023 	ldr.w	r3, [r2, r3, lsl #2]
 8002c18:	61fb      	str	r3, [r7, #28]
 8002c1a:	693b      	ldr	r3, [r7, #16]
 8002c1c:	2b00      	cmp	r3, #0
 8002c1e:	d10d      	bne.n	8002c3c <HAL_RCC_GetSysClockFreq+0x88>
 8002c20:	69fb      	ldr	r3, [r7, #28]
 8002c22:	61bb      	str	r3, [r7, #24]
 8002c24:	e00a      	b.n	8002c3c <HAL_RCC_GetSysClockFreq+0x88>
 8002c26:	693b      	ldr	r3, [r7, #16]
 8002c28:	2b04      	cmp	r3, #4
 8002c2a:	d102      	bne.n	8002c32 <HAL_RCC_GetSysClockFreq+0x7e>
 8002c2c:	4b24      	ldr	r3, [pc, #144]	; (8002cc0 <HAL_RCC_GetSysClockFreq+0x10c>)
 8002c2e:	61bb      	str	r3, [r7, #24]
 8002c30:	e004      	b.n	8002c3c <HAL_RCC_GetSysClockFreq+0x88>
 8002c32:	693b      	ldr	r3, [r7, #16]
 8002c34:	2b08      	cmp	r3, #8
 8002c36:	d101      	bne.n	8002c3c <HAL_RCC_GetSysClockFreq+0x88>
 8002c38:	4b22      	ldr	r3, [pc, #136]	; (8002cc4 <HAL_RCC_GetSysClockFreq+0x110>)
 8002c3a:	61bb      	str	r3, [r7, #24]
 8002c3c:	693b      	ldr	r3, [r7, #16]
 8002c3e:	2b0c      	cmp	r3, #12
 8002c40:	d133      	bne.n	8002caa <HAL_RCC_GetSysClockFreq+0xf6>
 8002c42:	4b1d      	ldr	r3, [pc, #116]	; (8002cb8 <HAL_RCC_GetSysClockFreq+0x104>)
 8002c44:	68db      	ldr	r3, [r3, #12]
 8002c46:	f003 0303 	and.w	r3, r3, #3
 8002c4a:	60bb      	str	r3, [r7, #8]
 8002c4c:	68bb      	ldr	r3, [r7, #8]
 8002c4e:	2b02      	cmp	r3, #2
 8002c50:	d002      	beq.n	8002c58 <HAL_RCC_GetSysClockFreq+0xa4>
 8002c52:	2b03      	cmp	r3, #3
 8002c54:	d003      	beq.n	8002c5e <HAL_RCC_GetSysClockFreq+0xaa>
 8002c56:	e005      	b.n	8002c64 <HAL_RCC_GetSysClockFreq+0xb0>
 8002c58:	4b19      	ldr	r3, [pc, #100]	; (8002cc0 <HAL_RCC_GetSysClockFreq+0x10c>)
 8002c5a:	617b      	str	r3, [r7, #20]
 8002c5c:	e005      	b.n	8002c6a <HAL_RCC_GetSysClockFreq+0xb6>
 8002c5e:	4b19      	ldr	r3, [pc, #100]	; (8002cc4 <HAL_RCC_GetSysClockFreq+0x110>)
 8002c60:	617b      	str	r3, [r7, #20]
 8002c62:	e002      	b.n	8002c6a <HAL_RCC_GetSysClockFreq+0xb6>
 8002c64:	69fb      	ldr	r3, [r7, #28]
 8002c66:	617b      	str	r3, [r7, #20]
 8002c68:	bf00      	nop
 8002c6a:	4b13      	ldr	r3, [pc, #76]	; (8002cb8 <HAL_RCC_GetSysClockFreq+0x104>)
 8002c6c:	68db      	ldr	r3, [r3, #12]
 8002c6e:	091b      	lsrs	r3, r3, #4
 8002c70:	f003 030f 	and.w	r3, r3, #15
 8002c74:	3301      	adds	r3, #1
 8002c76:	607b      	str	r3, [r7, #4]
 8002c78:	4b0f      	ldr	r3, [pc, #60]	; (8002cb8 <HAL_RCC_GetSysClockFreq+0x104>)
 8002c7a:	68db      	ldr	r3, [r3, #12]
 8002c7c:	0a1b      	lsrs	r3, r3, #8
 8002c7e:	f003 037f 	and.w	r3, r3, #127	; 0x7f
 8002c82:	697a      	ldr	r2, [r7, #20]
 8002c84:	fb02 f203 	mul.w	r2, r2, r3
 8002c88:	687b      	ldr	r3, [r7, #4]
 8002c8a:	fbb2 f3f3 	udiv	r3, r2, r3
 8002c8e:	617b      	str	r3, [r7, #20]
 8002c90:	4b09      	ldr	r3, [pc, #36]	; (8002cb8 <HAL_RCC_GetSysClockFreq+0x104>)
 8002c92:	68db      	ldr	r3, [r3, #12]
 8002c94:	0e5b      	lsrs	r3, r3, #25
 8002c96:	f003 0303 	and.w	r3, r3, #3
 8002c9a:	3301      	adds	r3, #1
 8002c9c:	005b      	lsls	r3, r3, #1
 8002c9e:	603b      	str	r3, [r7, #0]
 8002ca0:	697a      	ldr	r2, [r7, #20]
 8002ca2:	683b      	ldr	r3, [r7, #0]
 8002ca4:	fbb2 f3f3 	udiv	r3, r2, r3
 8002ca8:	61bb      	str	r3, [r7, #24]
 8002caa:	69bb      	ldr	r3, [r7, #24]
 8002cac:	4618      	mov	r0, r3
 8002cae:	3724      	adds	r7, #36	; 0x24
 8002cb0:	46bd      	mov	sp, r7
 8002cb2:	f85d 7b04 	ldr.w	r7, [sp], #4
 8002cb6:	4770      	bx	lr
 8002cb8:	40021000 	andmi	r1, r2, r0
 8002cbc:	0800b534 	stmdaeq	r0, {r2, r4, r5, r8, sl, ip, sp, pc}
 8002cc0:	00f42400 	rscseq	r2, r4, r0, lsl #8
 8002cc4:	007a1200 	rsbseq	r1, sl, r0, lsl #4

08002cc8 <HAL_RCC_GetHCLKFreq>:
 8002cc8:	b480      	push	{r7}
 8002cca:	af00      	add	r7, sp, #0
 8002ccc:	4b03      	ldr	r3, [pc, #12]	; (8002cdc <HAL_RCC_GetHCLKFreq+0x14>)
 8002cce:	681b      	ldr	r3, [r3, #0]
 8002cd0:	4618      	mov	r0, r3
 8002cd2:	46bd      	mov	sp, r7
 8002cd4:	f85d 7b04 	ldr.w	r7, [sp], #4
 8002cd8:	4770      	bx	lr
 8002cda:	bf00      	nop
 8002cdc:	20040078 	andcs	r0, r4, r8, ror r0

08002ce0 <HAL_RCC_GetPCLK1Freq>:
 8002ce0:	b580      	push	{r7, lr}
 8002ce2:	af00      	add	r7, sp, #0
 8002ce4:	f7ff fff0 	bl	8002cc8 <HAL_RCC_GetHCLKFreq>
 8002ce8:	4601      	mov	r1, r0
 8002cea:	4b06      	ldr	r3, [pc, #24]	; (8002d04 <HAL_RCC_GetPCLK1Freq+0x24>)
 8002cec:	689b      	ldr	r3, [r3, #8]
 8002cee:	0a1b      	lsrs	r3, r3, #8
 8002cf0:	f003 0307 	and.w	r3, r3, #7
 8002cf4:	4a04      	ldr	r2, [pc, #16]	; (8002d08 <HAL_RCC_GetPCLK1Freq+0x28>)
 8002cf6:	5cd3      	ldrb	r3, [r2, r3]
 8002cf8:	f003 031f 	and.w	r3, r3, #31
 8002cfc:	fa21 f303 	lsr.w	r3, r1, r3
 8002d00:	4618      	mov	r0, r3
 8002d02:	bd80      	pop	{r7, pc}
 8002d04:	40021000 	andmi	r1, r2, r0
 8002d08:	0800b52c 	stmdaeq	r0, {r2, r3, r5, r8, sl, ip, sp, pc}

08002d0c <HAL_RCC_GetPCLK2Freq>:
 8002d0c:	b580      	push	{r7, lr}
 8002d0e:	af00      	add	r7, sp, #0
 8002d10:	f7ff ffda 	bl	8002cc8 <HAL_RCC_GetHCLKFreq>
 8002d14:	4601      	mov	r1, r0
 8002d16:	4b06      	ldr	r3, [pc, #24]	; (8002d30 <HAL_RCC_GetPCLK2Freq+0x24>)
 8002d18:	689b      	ldr	r3, [r3, #8]
 8002d1a:	0adb      	lsrs	r3, r3, #11
 8002d1c:	f003 0307 	and.w	r3, r3, #7
 8002d20:	4a04      	ldr	r2, [pc, #16]	; (8002d34 <HAL_RCC_GetPCLK2Freq+0x28>)
 8002d22:	5cd3      	ldrb	r3, [r2, r3]
 8002d24:	f003 031f 	and.w	r3, r3, #31
 8002d28:	fa21 f303 	lsr.w	r3, r1, r3
 8002d2c:	4618      	mov	r0, r3
 8002d2e:	bd80      	pop	{r7, pc}
 8002d30:	40021000 	andmi	r1, r2, r0
 8002d34:	0800b52c 	stmdaeq	r0, {r2, r3, r5, r8, sl, ip, sp, pc}

08002d38 <RCC_SetFlashLatencyFromMSIRange>:
 8002d38:	b580      	push	{r7, lr}
 8002d3a:	b086      	sub	sp, #24
 8002d3c:	af00      	add	r7, sp, #0
 8002d3e:	6078      	str	r0, [r7, #4]
 8002d40:	2300      	movs	r3, #0
 8002d42:	613b      	str	r3, [r7, #16]
 8002d44:	4b27      	ldr	r3, [pc, #156]	; (8002de4 <RCC_SetFlashLatencyFromMSIRange+0xac>)
 8002d46:	6d9b      	ldr	r3, [r3, #88]	; 0x58
 8002d48:	f003 5380 	and.w	r3, r3, #268435456	; 0x10000000
 8002d4c:	2b00      	cmp	r3, #0
 8002d4e:	d003      	beq.n	8002d58 <RCC_SetFlashLatencyFromMSIRange+0x20>
 8002d50:	f7ff f9e4 	bl	800211c <HAL_PWREx_GetVoltageRange>
 8002d54:	6178      	str	r0, [r7, #20]
 8002d56:	e014      	b.n	8002d82 <RCC_SetFlashLatencyFromMSIRange+0x4a>
 8002d58:	4a22      	ldr	r2, [pc, #136]	; (8002de4 <RCC_SetFlashLatencyFromMSIRange+0xac>)
 8002d5a:	4b22      	ldr	r3, [pc, #136]	; (8002de4 <RCC_SetFlashLatencyFromMSIRange+0xac>)
 8002d5c:	6d9b      	ldr	r3, [r3, #88]	; 0x58
 8002d5e:	f043 5380 	orr.w	r3, r3, #268435456	; 0x10000000
 8002d62:	6593      	str	r3, [r2, #88]	; 0x58
 8002d64:	4b1f      	ldr	r3, [pc, #124]	; (8002de4 <RCC_SetFlashLatencyFromMSIRange+0xac>)
 8002d66:	6d9b      	ldr	r3, [r3, #88]	; 0x58
 8002d68:	f003 5380 	and.w	r3, r3, #268435456	; 0x10000000
 8002d6c:	60fb      	str	r3, [r7, #12]
 8002d6e:	68fb      	ldr	r3, [r7, #12]
 8002d70:	f7ff f9d4 	bl	800211c <HAL_PWREx_GetVoltageRange>
 8002d74:	6178      	str	r0, [r7, #20]
 8002d76:	4a1b      	ldr	r2, [pc, #108]	; (8002de4 <RCC_SetFlashLatencyFromMSIRange+0xac>)
 8002d78:	4b1a      	ldr	r3, [pc, #104]	; (8002de4 <RCC_SetFlashLatencyFromMSIRange+0xac>)
 8002d7a:	6d9b      	ldr	r3, [r3, #88]	; 0x58
 8002d7c:	f023 5380 	bic.w	r3, r3, #268435456	; 0x10000000
 8002d80:	6593      	str	r3, [r2, #88]	; 0x58
 8002d82:	697b      	ldr	r3, [r7, #20]
 8002d84:	f5b3 7f00 	cmp.w	r3, #512	; 0x200
 8002d88:	d10b      	bne.n	8002da2 <RCC_SetFlashLatencyFromMSIRange+0x6a>
 8002d8a:	687b      	ldr	r3, [r7, #4]
 8002d8c:	2b80      	cmp	r3, #128	; 0x80
 8002d8e:	d913      	bls.n	8002db8 <RCC_SetFlashLatencyFromMSIRange+0x80>
 8002d90:	687b      	ldr	r3, [r7, #4]
 8002d92:	2ba0      	cmp	r3, #160	; 0xa0
 8002d94:	d902      	bls.n	8002d9c <RCC_SetFlashLatencyFromMSIRange+0x64>
 8002d96:	2302      	movs	r3, #2
 8002d98:	613b      	str	r3, [r7, #16]
 8002d9a:	e00d      	b.n	8002db8 <RCC_SetFlashLatencyFromMSIRange+0x80>
 8002d9c:	2301      	movs	r3, #1
 8002d9e:	613b      	str	r3, [r7, #16]
 8002da0:	e00a      	b.n	8002db8 <RCC_SetFlashLatencyFromMSIRange+0x80>
 8002da2:	687b      	ldr	r3, [r7, #4]
 8002da4:	2b7f      	cmp	r3, #127	; 0x7f
 8002da6:	d902      	bls.n	8002dae <RCC_SetFlashLatencyFromMSIRange+0x76>
 8002da8:	2302      	movs	r3, #2
 8002daa:	613b      	str	r3, [r7, #16]
 8002dac:	e004      	b.n	8002db8 <RCC_SetFlashLatencyFromMSIRange+0x80>
 8002dae:	687b      	ldr	r3, [r7, #4]
 8002db0:	2b70      	cmp	r3, #112	; 0x70
 8002db2:	d101      	bne.n	8002db8 <RCC_SetFlashLatencyFromMSIRange+0x80>
 8002db4:	2301      	movs	r3, #1
 8002db6:	613b      	str	r3, [r7, #16]
 8002db8:	490b      	ldr	r1, [pc, #44]	; (8002de8 <RCC_SetFlashLatencyFromMSIRange+0xb0>)
 8002dba:	4b0b      	ldr	r3, [pc, #44]	; (8002de8 <RCC_SetFlashLatencyFromMSIRange+0xb0>)
 8002dbc:	681b      	ldr	r3, [r3, #0]
 8002dbe:	f023 020f 	bic.w	r2, r3, #15
 8002dc2:	693b      	ldr	r3, [r7, #16]
 8002dc4:	4313      	orrs	r3, r2
 8002dc6:	600b      	str	r3, [r1, #0]
 8002dc8:	4b07      	ldr	r3, [pc, #28]	; (8002de8 <RCC_SetFlashLatencyFromMSIRange+0xb0>)
 8002dca:	681b      	ldr	r3, [r3, #0]
 8002dcc:	f003 020f 	and.w	r2, r3, #15
 8002dd0:	693b      	ldr	r3, [r7, #16]
 8002dd2:	429a      	cmp	r2, r3
 8002dd4:	d001      	beq.n	8002dda <RCC_SetFlashLatencyFromMSIRange+0xa2>
 8002dd6:	2301      	movs	r3, #1
 8002dd8:	e000      	b.n	8002ddc <RCC_SetFlashLatencyFromMSIRange+0xa4>
 8002dda:	2300      	movs	r3, #0
 8002ddc:	4618      	mov	r0, r3
 8002dde:	3718      	adds	r7, #24
 8002de0:	46bd      	mov	sp, r7
 8002de2:	bd80      	pop	{r7, pc}
 8002de4:	40021000 	andmi	r1, r2, r0
 8002de8:	40022000 	andmi	r2, r2, r0

08002dec <RCC_GetSysClockFreqFromPLLSource>:
 8002dec:	b480      	push	{r7}
 8002dee:	b087      	sub	sp, #28
 8002df0:	af00      	add	r7, sp, #0
 8002df2:	4b2b      	ldr	r3, [pc, #172]	; (8002ea0 <RCC_GetSysClockFreqFromPLLSource+0xb4>)
 8002df4:	68db      	ldr	r3, [r3, #12]
 8002df6:	f003 0303 	and.w	r3, r3, #3
 8002dfa:	60fb      	str	r3, [r7, #12]
 8002dfc:	68fb      	ldr	r3, [r7, #12]
 8002dfe:	2b02      	cmp	r3, #2
 8002e00:	d004      	beq.n	8002e0c <RCC_GetSysClockFreqFromPLLSource+0x20>
 8002e02:	2b03      	cmp	r3, #3
 8002e04:	d005      	beq.n	8002e12 <RCC_GetSysClockFreqFromPLLSource+0x26>
 8002e06:	2b01      	cmp	r3, #1
 8002e08:	d006      	beq.n	8002e18 <RCC_GetSysClockFreqFromPLLSource+0x2c>
 8002e0a:	e01f      	b.n	8002e4c <RCC_GetSysClockFreqFromPLLSource+0x60>
 8002e0c:	4b25      	ldr	r3, [pc, #148]	; (8002ea4 <RCC_GetSysClockFreqFromPLLSource+0xb8>)
 8002e0e:	613b      	str	r3, [r7, #16]
 8002e10:	e01f      	b.n	8002e52 <RCC_GetSysClockFreqFromPLLSource+0x66>
 8002e12:	4b25      	ldr	r3, [pc, #148]	; (8002ea8 <RCC_GetSysClockFreqFromPLLSource+0xbc>)
 8002e14:	613b      	str	r3, [r7, #16]
 8002e16:	e01c      	b.n	8002e52 <RCC_GetSysClockFreqFromPLLSource+0x66>
 8002e18:	4b21      	ldr	r3, [pc, #132]	; (8002ea0 <RCC_GetSysClockFreqFromPLLSource+0xb4>)
 8002e1a:	681b      	ldr	r3, [r3, #0]
 8002e1c:	f003 0308 	and.w	r3, r3, #8
 8002e20:	2b00      	cmp	r3, #0
 8002e22:	d107      	bne.n	8002e34 <RCC_GetSysClockFreqFromPLLSource+0x48>
 8002e24:	4b1e      	ldr	r3, [pc, #120]	; (8002ea0 <RCC_GetSysClockFreqFromPLLSource+0xb4>)
 8002e26:	f8d3 3094 	ldr.w	r3, [r3, #148]	; 0x94
 8002e2a:	0a1b      	lsrs	r3, r3, #8
 8002e2c:	f003 030f 	and.w	r3, r3, #15
 8002e30:	617b      	str	r3, [r7, #20]
 8002e32:	e005      	b.n	8002e40 <RCC_GetSysClockFreqFromPLLSource+0x54>
 8002e34:	4b1a      	ldr	r3, [pc, #104]	; (8002ea0 <RCC_GetSysClockFreqFromPLLSource+0xb4>)
 8002e36:	681b      	ldr	r3, [r3, #0]
 8002e38:	091b      	lsrs	r3, r3, #4
 8002e3a:	f003 030f 	and.w	r3, r3, #15
 8002e3e:	617b      	str	r3, [r7, #20]
 8002e40:	4a1a      	ldr	r2, [pc, #104]	; (8002eac <RCC_GetSysClockFreqFromPLLSource+0xc0>)
 8002e42:	697b      	ldr	r3, [r7, #20]
 8002e44:	f852 3023 	ldr.w	r3, [r2, r3, lsl #2]
 8002e48:	613b      	str	r3, [r7, #16]
 8002e4a:	e002      	b.n	8002e52 <RCC_GetSysClockFreqFromPLLSource+0x66>
 8002e4c:	2300      	movs	r3, #0
 8002e4e:	613b      	str	r3, [r7, #16]
 8002e50:	bf00      	nop
 8002e52:	4b13      	ldr	r3, [pc, #76]	; (8002ea0 <RCC_GetSysClockFreqFromPLLSource+0xb4>)
 8002e54:	68db      	ldr	r3, [r3, #12]
 8002e56:	091b      	lsrs	r3, r3, #4
 8002e58:	f003 030f 	and.w	r3, r3, #15
 8002e5c:	3301      	adds	r3, #1
 8002e5e:	60bb      	str	r3, [r7, #8]
 8002e60:	4b0f      	ldr	r3, [pc, #60]	; (8002ea0 <RCC_GetSysClockFreqFromPLLSource+0xb4>)
 8002e62:	68db      	ldr	r3, [r3, #12]
 8002e64:	0a1b      	lsrs	r3, r3, #8
 8002e66:	f003 037f 	and.w	r3, r3, #127	; 0x7f
 8002e6a:	693a      	ldr	r2, [r7, #16]
 8002e6c:	fb02 f203 	mul.w	r2, r2, r3
 8002e70:	68bb      	ldr	r3, [r7, #8]
 8002e72:	fbb2 f3f3 	udiv	r3, r2, r3
 8002e76:	613b      	str	r3, [r7, #16]
 8002e78:	4b09      	ldr	r3, [pc, #36]	; (8002ea0 <RCC_GetSysClockFreqFromPLLSource+0xb4>)
 8002e7a:	68db      	ldr	r3, [r3, #12]
 8002e7c:	0e5b      	lsrs	r3, r3, #25
 8002e7e:	f003 0303 	and.w	r3, r3, #3
 8002e82:	3301      	adds	r3, #1
 8002e84:	005b      	lsls	r3, r3, #1
 8002e86:	607b      	str	r3, [r7, #4]
 8002e88:	693a      	ldr	r2, [r7, #16]
 8002e8a:	687b      	ldr	r3, [r7, #4]
 8002e8c:	fbb2 f3f3 	udiv	r3, r2, r3
 8002e90:	603b      	str	r3, [r7, #0]
 8002e92:	683b      	ldr	r3, [r7, #0]
 8002e94:	4618      	mov	r0, r3
 8002e96:	371c      	adds	r7, #28
 8002e98:	46bd      	mov	sp, r7
 8002e9a:	f85d 7b04 	ldr.w	r7, [sp], #4
 8002e9e:	4770      	bx	lr
 8002ea0:	40021000 	andmi	r1, r2, r0
 8002ea4:	00f42400 	rscseq	r2, r4, r0, lsl #8
 8002ea8:	007a1200 	rsbseq	r1, sl, r0, lsl #4
 8002eac:	0800b534 	stmdaeq	r0, {r2, r4, r5, r8, sl, ip, sp, pc}

08002eb0 <HAL_RCCEx_PeriphCLKConfig>:
 8002eb0:	b580      	push	{r7, lr}
 8002eb2:	b086      	sub	sp, #24
 8002eb4:	af00      	add	r7, sp, #0
 8002eb6:	6078      	str	r0, [r7, #4]
 8002eb8:	2300      	movs	r3, #0
 8002eba:	74fb      	strb	r3, [r7, #19]
 8002ebc:	2300      	movs	r3, #0
 8002ebe:	74bb      	strb	r3, [r7, #18]
 8002ec0:	687b      	ldr	r3, [r7, #4]
 8002ec2:	681b      	ldr	r3, [r3, #0]
 8002ec4:	f403 6300 	and.w	r3, r3, #2048	; 0x800
 8002ec8:	2b00      	cmp	r3, #0
 8002eca:	d03d      	beq.n	8002f48 <HAL_RCCEx_PeriphCLKConfig+0x98>
 8002ecc:	687b      	ldr	r3, [r7, #4]
 8002ece:	6edb      	ldr	r3, [r3, #108]	; 0x6c
 8002ed0:	2b40      	cmp	r3, #64	; 0x40
 8002ed2:	d00b      	beq.n	8002eec <HAL_RCCEx_PeriphCLKConfig+0x3c>
 8002ed4:	2b40      	cmp	r3, #64	; 0x40
 8002ed6:	d804      	bhi.n	8002ee2 <HAL_RCCEx_PeriphCLKConfig+0x32>
 8002ed8:	2b00      	cmp	r3, #0
 8002eda:	d00e      	beq.n	8002efa <HAL_RCCEx_PeriphCLKConfig+0x4a>
 8002edc:	2b20      	cmp	r3, #32
 8002ede:	d015      	beq.n	8002f0c <HAL_RCCEx_PeriphCLKConfig+0x5c>
 8002ee0:	e01d      	b.n	8002f1e <HAL_RCCEx_PeriphCLKConfig+0x6e>
 8002ee2:	2b60      	cmp	r3, #96	; 0x60
 8002ee4:	d01e      	beq.n	8002f24 <HAL_RCCEx_PeriphCLKConfig+0x74>
 8002ee6:	2b80      	cmp	r3, #128	; 0x80
 8002ee8:	d01c      	beq.n	8002f24 <HAL_RCCEx_PeriphCLKConfig+0x74>
 8002eea:	e018      	b.n	8002f1e <HAL_RCCEx_PeriphCLKConfig+0x6e>
 8002eec:	4a86      	ldr	r2, [pc, #536]	; (8003108 <HAL_RCCEx_PeriphCLKConfig+0x258>)
 8002eee:	4b86      	ldr	r3, [pc, #536]	; (8003108 <HAL_RCCEx_PeriphCLKConfig+0x258>)
 8002ef0:	68db      	ldr	r3, [r3, #12]
 8002ef2:	f443 3380 	orr.w	r3, r3, #65536	; 0x10000
 8002ef6:	60d3      	str	r3, [r2, #12]
 8002ef8:	e015      	b.n	8002f26 <HAL_RCCEx_PeriphCLKConfig+0x76>
 8002efa:	687b      	ldr	r3, [r7, #4]
 8002efc:	3304      	adds	r3, #4
 8002efe:	2100      	movs	r1, #0
 8002f00:	4618      	mov	r0, r3
 8002f02:	f001 f915 	bl	8004130 <RCCEx_PLLSAI1_Config>
 8002f06:	4603      	mov	r3, r0
 8002f08:	74fb      	strb	r3, [r7, #19]
 8002f0a:	e00c      	b.n	8002f26 <HAL_RCCEx_PeriphCLKConfig+0x76>
 8002f0c:	687b      	ldr	r3, [r7, #4]
 8002f0e:	3320      	adds	r3, #32
 8002f10:	2100      	movs	r1, #0
 8002f12:	4618      	mov	r0, r3
 8002f14:	f001 f9fc 	bl	8004310 <RCCEx_PLLSAI2_Config>
 8002f18:	4603      	mov	r3, r0
 8002f1a:	74fb      	strb	r3, [r7, #19]
 8002f1c:	e003      	b.n	8002f26 <HAL_RCCEx_PeriphCLKConfig+0x76>
 8002f1e:	2301      	movs	r3, #1
 8002f20:	74fb      	strb	r3, [r7, #19]
 8002f22:	e000      	b.n	8002f26 <HAL_RCCEx_PeriphCLKConfig+0x76>
 8002f24:	bf00      	nop
 8002f26:	7cfb      	ldrb	r3, [r7, #19]
 8002f28:	2b00      	cmp	r3, #0
 8002f2a:	d10b      	bne.n	8002f44 <HAL_RCCEx_PeriphCLKConfig+0x94>
 8002f2c:	4976      	ldr	r1, [pc, #472]	; (8003108 <HAL_RCCEx_PeriphCLKConfig+0x258>)
 8002f2e:	4b76      	ldr	r3, [pc, #472]	; (8003108 <HAL_RCCEx_PeriphCLKConfig+0x258>)
 8002f30:	f8d3 309c 	ldr.w	r3, [r3, #156]	; 0x9c
 8002f34:	f023 02e0 	bic.w	r2, r3, #224	; 0xe0
 8002f38:	687b      	ldr	r3, [r7, #4]
 8002f3a:	6edb      	ldr	r3, [r3, #108]	; 0x6c
 8002f3c:	4313      	orrs	r3, r2
 8002f3e:	f8c1 309c 	str.w	r3, [r1, #156]	; 0x9c
 8002f42:	e001      	b.n	8002f48 <HAL_RCCEx_PeriphCLKConfig+0x98>
 8002f44:	7cfb      	ldrb	r3, [r7, #19]
 8002f46:	74bb      	strb	r3, [r7, #18]
 8002f48:	687b      	ldr	r3, [r7, #4]
 8002f4a:	681b      	ldr	r3, [r3, #0]
 8002f4c:	f403 5380 	and.w	r3, r3, #4096	; 0x1000
 8002f50:	2b00      	cmp	r3, #0
 8002f52:	d042      	beq.n	8002fda <HAL_RCCEx_PeriphCLKConfig+0x12a>
 8002f54:	687b      	ldr	r3, [r7, #4]
 8002f56:	6f1b      	ldr	r3, [r3, #112]	; 0x70
 8002f58:	f5b3 7f00 	cmp.w	r3, #512	; 0x200
 8002f5c:	d00f      	beq.n	8002f7e <HAL_RCCEx_PeriphCLKConfig+0xce>
 8002f5e:	f5b3 7f00 	cmp.w	r3, #512	; 0x200
 8002f62:	d805      	bhi.n	8002f70 <HAL_RCCEx_PeriphCLKConfig+0xc0>
 8002f64:	2b00      	cmp	r3, #0
 8002f66:	d011      	beq.n	8002f8c <HAL_RCCEx_PeriphCLKConfig+0xdc>
 8002f68:	f5b3 7f80 	cmp.w	r3, #256	; 0x100
 8002f6c:	d017      	beq.n	8002f9e <HAL_RCCEx_PeriphCLKConfig+0xee>
 8002f6e:	e01f      	b.n	8002fb0 <HAL_RCCEx_PeriphCLKConfig+0x100>
 8002f70:	f5b3 7f40 	cmp.w	r3, #768	; 0x300
 8002f74:	d01f      	beq.n	8002fb6 <HAL_RCCEx_PeriphCLKConfig+0x106>
 8002f76:	f5b3 6f80 	cmp.w	r3, #1024	; 0x400
 8002f7a:	d01c      	beq.n	8002fb6 <HAL_RCCEx_PeriphCLKConfig+0x106>
 8002f7c:	e018      	b.n	8002fb0 <HAL_RCCEx_PeriphCLKConfig+0x100>
 8002f7e:	4a62      	ldr	r2, [pc, #392]	; (8003108 <HAL_RCCEx_PeriphCLKConfig+0x258>)
 8002f80:	4b61      	ldr	r3, [pc, #388]	; (8003108 <HAL_RCCEx_PeriphCLKConfig+0x258>)
 8002f82:	68db      	ldr	r3, [r3, #12]
 8002f84:	f443 3380 	orr.w	r3, r3, #65536	; 0x10000
 8002f88:	60d3      	str	r3, [r2, #12]
 8002f8a:	e015      	b.n	8002fb8 <HAL_RCCEx_PeriphCLKConfig+0x108>
 8002f8c:	687b      	ldr	r3, [r7, #4]
 8002f8e:	3304      	adds	r3, #4
 8002f90:	2100      	movs	r1, #0
 8002f92:	4618      	mov	r0, r3
 8002f94:	f001 f8cc 	bl	8004130 <RCCEx_PLLSAI1_Config>
 8002f98:	4603      	mov	r3, r0
 8002f9a:	74fb      	strb	r3, [r7, #19]
 8002f9c:	e00c      	b.n	8002fb8 <HAL_RCCEx_PeriphCLKConfig+0x108>
 8002f9e:	687b      	ldr	r3, [r7, #4]
 8002fa0:	3320      	adds	r3, #32
 8002fa2:	2100      	movs	r1, #0
 8002fa4:	4618      	mov	r0, r3
 8002fa6:	f001 f9b3 	bl	8004310 <RCCEx_PLLSAI2_Config>
 8002faa:	4603      	mov	r3, r0
 8002fac:	74fb      	strb	r3, [r7, #19]
 8002fae:	e003      	b.n	8002fb8 <HAL_RCCEx_PeriphCLKConfig+0x108>
 8002fb0:	2301      	movs	r3, #1
 8002fb2:	74fb      	strb	r3, [r7, #19]
 8002fb4:	e000      	b.n	8002fb8 <HAL_RCCEx_PeriphCLKConfig+0x108>
 8002fb6:	bf00      	nop
 8002fb8:	7cfb      	ldrb	r3, [r7, #19]
 8002fba:	2b00      	cmp	r3, #0
 8002fbc:	d10b      	bne.n	8002fd6 <HAL_RCCEx_PeriphCLKConfig+0x126>
 8002fbe:	4952      	ldr	r1, [pc, #328]	; (8003108 <HAL_RCCEx_PeriphCLKConfig+0x258>)
 8002fc0:	4b51      	ldr	r3, [pc, #324]	; (8003108 <HAL_RCCEx_PeriphCLKConfig+0x258>)
 8002fc2:	f8d3 309c 	ldr.w	r3, [r3, #156]	; 0x9c
 8002fc6:	f423 62e0 	bic.w	r2, r3, #1792	; 0x700
 8002fca:	687b      	ldr	r3, [r7, #4]
 8002fcc:	6f1b      	ldr	r3, [r3, #112]	; 0x70
 8002fce:	4313      	orrs	r3, r2
 8002fd0:	f8c1 309c 	str.w	r3, [r1, #156]	; 0x9c
 8002fd4:	e001      	b.n	8002fda <HAL_RCCEx_PeriphCLKConfig+0x12a>
 8002fd6:	7cfb      	ldrb	r3, [r7, #19]
 8002fd8:	74bb      	strb	r3, [r7, #18]
 8002fda:	687b      	ldr	r3, [r7, #4]
 8002fdc:	681b      	ldr	r3, [r3, #0]
 8002fde:	f403 3300 	and.w	r3, r3, #131072	; 0x20000
 8002fe2:	2b00      	cmp	r3, #0
 8002fe4:	f000 809f 	beq.w	8003126 <HAL_RCCEx_PeriphCLKConfig+0x276>
 8002fe8:	2300      	movs	r3, #0
 8002fea:	747b      	strb	r3, [r7, #17]
 8002fec:	4b46      	ldr	r3, [pc, #280]	; (8003108 <HAL_RCCEx_PeriphCLKConfig+0x258>)
 8002fee:	6d9b      	ldr	r3, [r3, #88]	; 0x58
 8002ff0:	f003 5380 	and.w	r3, r3, #268435456	; 0x10000000
 8002ff4:	2b00      	cmp	r3, #0
 8002ff6:	d101      	bne.n	8002ffc <HAL_RCCEx_PeriphCLKConfig+0x14c>
 8002ff8:	2301      	movs	r3, #1
 8002ffa:	e000      	b.n	8002ffe <HAL_RCCEx_PeriphCLKConfig+0x14e>
 8002ffc:	2300      	movs	r3, #0
 8002ffe:	2b00      	cmp	r3, #0
 8003000:	d00d      	beq.n	800301e <HAL_RCCEx_PeriphCLKConfig+0x16e>
 8003002:	4a41      	ldr	r2, [pc, #260]	; (8003108 <HAL_RCCEx_PeriphCLKConfig+0x258>)
 8003004:	4b40      	ldr	r3, [pc, #256]	; (8003108 <HAL_RCCEx_PeriphCLKConfig+0x258>)
 8003006:	6d9b      	ldr	r3, [r3, #88]	; 0x58
 8003008:	f043 5380 	orr.w	r3, r3, #268435456	; 0x10000000
 800300c:	6593      	str	r3, [r2, #88]	; 0x58
 800300e:	4b3e      	ldr	r3, [pc, #248]	; (8003108 <HAL_RCCEx_PeriphCLKConfig+0x258>)
 8003010:	6d9b      	ldr	r3, [r3, #88]	; 0x58
 8003012:	f003 5380 	and.w	r3, r3, #268435456	; 0x10000000
 8003016:	60bb      	str	r3, [r7, #8]
 8003018:	68bb      	ldr	r3, [r7, #8]
 800301a:	2301      	movs	r3, #1
 800301c:	747b      	strb	r3, [r7, #17]
 800301e:	4a3b      	ldr	r2, [pc, #236]	; (800310c <HAL_RCCEx_PeriphCLKConfig+0x25c>)
 8003020:	4b3a      	ldr	r3, [pc, #232]	; (800310c <HAL_RCCEx_PeriphCLKConfig+0x25c>)
 8003022:	681b      	ldr	r3, [r3, #0]
 8003024:	f443 7380 	orr.w	r3, r3, #256	; 0x100
 8003028:	6013      	str	r3, [r2, #0]
 800302a:	f7fd f8f9 	bl	8000220 <HAL_GetTick>
 800302e:	60f8      	str	r0, [r7, #12]
 8003030:	e009      	b.n	8003046 <HAL_RCCEx_PeriphCLKConfig+0x196>
 8003032:	f7fd f8f5 	bl	8000220 <HAL_GetTick>
 8003036:	4602      	mov	r2, r0
 8003038:	68fb      	ldr	r3, [r7, #12]
 800303a:	1ad3      	subs	r3, r2, r3
 800303c:	2b02      	cmp	r3, #2
 800303e:	d902      	bls.n	8003046 <HAL_RCCEx_PeriphCLKConfig+0x196>
 8003040:	2303      	movs	r3, #3
 8003042:	74fb      	strb	r3, [r7, #19]
 8003044:	e005      	b.n	8003052 <HAL_RCCEx_PeriphCLKConfig+0x1a2>
 8003046:	4b31      	ldr	r3, [pc, #196]	; (800310c <HAL_RCCEx_PeriphCLKConfig+0x25c>)
 8003048:	681b      	ldr	r3, [r3, #0]
 800304a:	f403 7380 	and.w	r3, r3, #256	; 0x100
 800304e:	2b00      	cmp	r3, #0
 8003050:	d0ef      	beq.n	8003032 <HAL_RCCEx_PeriphCLKConfig+0x182>
 8003052:	7cfb      	ldrb	r3, [r7, #19]
 8003054:	2b00      	cmp	r3, #0
 8003056:	d15b      	bne.n	8003110 <HAL_RCCEx_PeriphCLKConfig+0x260>
 8003058:	4b2b      	ldr	r3, [pc, #172]	; (8003108 <HAL_RCCEx_PeriphCLKConfig+0x258>)
 800305a:	f8d3 3090 	ldr.w	r3, [r3, #144]	; 0x90
 800305e:	f403 7340 	and.w	r3, r3, #768	; 0x300
 8003062:	617b      	str	r3, [r7, #20]
 8003064:	697b      	ldr	r3, [r7, #20]
 8003066:	2b00      	cmp	r3, #0
 8003068:	d01f      	beq.n	80030aa <HAL_RCCEx_PeriphCLKConfig+0x1fa>
 800306a:	687b      	ldr	r3, [r7, #4]
 800306c:	f8d3 2090 	ldr.w	r2, [r3, #144]	; 0x90
 8003070:	697b      	ldr	r3, [r7, #20]
 8003072:	429a      	cmp	r2, r3
 8003074:	d019      	beq.n	80030aa <HAL_RCCEx_PeriphCLKConfig+0x1fa>
 8003076:	4b24      	ldr	r3, [pc, #144]	; (8003108 <HAL_RCCEx_PeriphCLKConfig+0x258>)
 8003078:	f8d3 3090 	ldr.w	r3, [r3, #144]	; 0x90
 800307c:	f423 7340 	bic.w	r3, r3, #768	; 0x300
 8003080:	617b      	str	r3, [r7, #20]
 8003082:	4a21      	ldr	r2, [pc, #132]	; (8003108 <HAL_RCCEx_PeriphCLKConfig+0x258>)
 8003084:	4b20      	ldr	r3, [pc, #128]	; (8003108 <HAL_RCCEx_PeriphCLKConfig+0x258>)
 8003086:	f8d3 3090 	ldr.w	r3, [r3, #144]	; 0x90
 800308a:	f443 3380 	orr.w	r3, r3, #65536	; 0x10000
 800308e:	f8c2 3090 	str.w	r3, [r2, #144]	; 0x90
 8003092:	4a1d      	ldr	r2, [pc, #116]	; (8003108 <HAL_RCCEx_PeriphCLKConfig+0x258>)
 8003094:	4b1c      	ldr	r3, [pc, #112]	; (8003108 <HAL_RCCEx_PeriphCLKConfig+0x258>)
 8003096:	f8d3 3090 	ldr.w	r3, [r3, #144]	; 0x90
 800309a:	f423 3380 	bic.w	r3, r3, #65536	; 0x10000
 800309e:	f8c2 3090 	str.w	r3, [r2, #144]	; 0x90
 80030a2:	4a19      	ldr	r2, [pc, #100]	; (8003108 <HAL_RCCEx_PeriphCLKConfig+0x258>)
 80030a4:	697b      	ldr	r3, [r7, #20]
 80030a6:	f8c2 3090 	str.w	r3, [r2, #144]	; 0x90
 80030aa:	697b      	ldr	r3, [r7, #20]
 80030ac:	f003 0301 	and.w	r3, r3, #1
 80030b0:	2b00      	cmp	r3, #0
 80030b2:	d016      	beq.n	80030e2 <HAL_RCCEx_PeriphCLKConfig+0x232>
 80030b4:	f7fd f8b4 	bl	8000220 <HAL_GetTick>
 80030b8:	60f8      	str	r0, [r7, #12]
 80030ba:	e00b      	b.n	80030d4 <HAL_RCCEx_PeriphCLKConfig+0x224>
 80030bc:	f7fd f8b0 	bl	8000220 <HAL_GetTick>
 80030c0:	4602      	mov	r2, r0
 80030c2:	68fb      	ldr	r3, [r7, #12]
 80030c4:	1ad3      	subs	r3, r2, r3
 80030c6:	f241 3288 	movw	r2, #5000	; 0x1388
 80030ca:	4293      	cmp	r3, r2
 80030cc:	d902      	bls.n	80030d4 <HAL_RCCEx_PeriphCLKConfig+0x224>
 80030ce:	2303      	movs	r3, #3
 80030d0:	74fb      	strb	r3, [r7, #19]
 80030d2:	e006      	b.n	80030e2 <HAL_RCCEx_PeriphCLKConfig+0x232>
 80030d4:	4b0c      	ldr	r3, [pc, #48]	; (8003108 <HAL_RCCEx_PeriphCLKConfig+0x258>)
 80030d6:	f8d3 3090 	ldr.w	r3, [r3, #144]	; 0x90
 80030da:	f003 0302 	and.w	r3, r3, #2
 80030de:	2b00      	cmp	r3, #0
 80030e0:	d0ec      	beq.n	80030bc <HAL_RCCEx_PeriphCLKConfig+0x20c>
 80030e2:	7cfb      	ldrb	r3, [r7, #19]
 80030e4:	2b00      	cmp	r3, #0
 80030e6:	d10c      	bne.n	8003102 <HAL_RCCEx_PeriphCLKConfig+0x252>
 80030e8:	4907      	ldr	r1, [pc, #28]	; (8003108 <HAL_RCCEx_PeriphCLKConfig+0x258>)
 80030ea:	4b07      	ldr	r3, [pc, #28]	; (8003108 <HAL_RCCEx_PeriphCLKConfig+0x258>)
 80030ec:	f8d3 3090 	ldr.w	r3, [r3, #144]	; 0x90
 80030f0:	f423 7240 	bic.w	r2, r3, #768	; 0x300
 80030f4:	687b      	ldr	r3, [r7, #4]
 80030f6:	f8d3 3090 	ldr.w	r3, [r3, #144]	; 0x90
 80030fa:	4313      	orrs	r3, r2
 80030fc:	f8c1 3090 	str.w	r3, [r1, #144]	; 0x90
 8003100:	e008      	b.n	8003114 <HAL_RCCEx_PeriphCLKConfig+0x264>
 8003102:	7cfb      	ldrb	r3, [r7, #19]
 8003104:	74bb      	strb	r3, [r7, #18]
 8003106:	e005      	b.n	8003114 <HAL_RCCEx_PeriphCLKConfig+0x264>
 8003108:	40021000 	andmi	r1, r2, r0
 800310c:	40007000 	andmi	r7, r0, r0
 8003110:	7cfb      	ldrb	r3, [r7, #19]
 8003112:	74bb      	strb	r3, [r7, #18]
 8003114:	7c7b      	ldrb	r3, [r7, #17]
 8003116:	2b01      	cmp	r3, #1
 8003118:	d105      	bne.n	8003126 <HAL_RCCEx_PeriphCLKConfig+0x276>
 800311a:	4aa0      	ldr	r2, [pc, #640]	; (800339c <HAL_RCCEx_PeriphCLKConfig+0x4ec>)
 800311c:	4b9f      	ldr	r3, [pc, #636]	; (800339c <HAL_RCCEx_PeriphCLKConfig+0x4ec>)
 800311e:	6d9b      	ldr	r3, [r3, #88]	; 0x58
 8003120:	f023 5380 	bic.w	r3, r3, #268435456	; 0x10000000
 8003124:	6593      	str	r3, [r2, #88]	; 0x58
 8003126:	687b      	ldr	r3, [r7, #4]
 8003128:	681b      	ldr	r3, [r3, #0]
 800312a:	f003 0301 	and.w	r3, r3, #1
 800312e:	2b00      	cmp	r3, #0
 8003130:	d00a      	beq.n	8003148 <HAL_RCCEx_PeriphCLKConfig+0x298>
 8003132:	499a      	ldr	r1, [pc, #616]	; (800339c <HAL_RCCEx_PeriphCLKConfig+0x4ec>)
 8003134:	4b99      	ldr	r3, [pc, #612]	; (800339c <HAL_RCCEx_PeriphCLKConfig+0x4ec>)
 8003136:	f8d3 3088 	ldr.w	r3, [r3, #136]	; 0x88
 800313a:	f023 0203 	bic.w	r2, r3, #3
 800313e:	687b      	ldr	r3, [r7, #4]
 8003140:	6bdb      	ldr	r3, [r3, #60]	; 0x3c
 8003142:	4313      	orrs	r3, r2
 8003144:	f8c1 3088 	str.w	r3, [r1, #136]	; 0x88
 8003148:	687b      	ldr	r3, [r7, #4]
 800314a:	681b      	ldr	r3, [r3, #0]
 800314c:	f003 0302 	and.w	r3, r3, #2
 8003150:	2b00      	cmp	r3, #0
 8003152:	d00a      	beq.n	800316a <HAL_RCCEx_PeriphCLKConfig+0x2ba>
 8003154:	4991      	ldr	r1, [pc, #580]	; (800339c <HAL_RCCEx_PeriphCLKConfig+0x4ec>)
 8003156:	4b91      	ldr	r3, [pc, #580]	; (800339c <HAL_RCCEx_PeriphCLKConfig+0x4ec>)
 8003158:	f8d3 3088 	ldr.w	r3, [r3, #136]	; 0x88
 800315c:	f023 020c 	bic.w	r2, r3, #12
 8003160:	687b      	ldr	r3, [r7, #4]
 8003162:	6c1b      	ldr	r3, [r3, #64]	; 0x40
 8003164:	4313      	orrs	r3, r2
 8003166:	f8c1 3088 	str.w	r3, [r1, #136]	; 0x88
 800316a:	687b      	ldr	r3, [r7, #4]
 800316c:	681b      	ldr	r3, [r3, #0]
 800316e:	f003 0304 	and.w	r3, r3, #4
 8003172:	2b00      	cmp	r3, #0
 8003174:	d00a      	beq.n	800318c <HAL_RCCEx_PeriphCLKConfig+0x2dc>
 8003176:	4989      	ldr	r1, [pc, #548]	; (800339c <HAL_RCCEx_PeriphCLKConfig+0x4ec>)
 8003178:	4b88      	ldr	r3, [pc, #544]	; (800339c <HAL_RCCEx_PeriphCLKConfig+0x4ec>)
 800317a:	f8d3 3088 	ldr.w	r3, [r3, #136]	; 0x88
 800317e:	f023 0230 	bic.w	r2, r3, #48	; 0x30
 8003182:	687b      	ldr	r3, [r7, #4]
 8003184:	6c5b      	ldr	r3, [r3, #68]	; 0x44
 8003186:	4313      	orrs	r3, r2
 8003188:	f8c1 3088 	str.w	r3, [r1, #136]	; 0x88
 800318c:	687b      	ldr	r3, [r7, #4]
 800318e:	681b      	ldr	r3, [r3, #0]
 8003190:	f003 0308 	and.w	r3, r3, #8
 8003194:	2b00      	cmp	r3, #0
 8003196:	d00a      	beq.n	80031ae <HAL_RCCEx_PeriphCLKConfig+0x2fe>
 8003198:	4980      	ldr	r1, [pc, #512]	; (800339c <HAL_RCCEx_PeriphCLKConfig+0x4ec>)
 800319a:	4b80      	ldr	r3, [pc, #512]	; (800339c <HAL_RCCEx_PeriphCLKConfig+0x4ec>)
 800319c:	f8d3 3088 	ldr.w	r3, [r3, #136]	; 0x88
 80031a0:	f023 02c0 	bic.w	r2, r3, #192	; 0xc0
 80031a4:	687b      	ldr	r3, [r7, #4]
 80031a6:	6c9b      	ldr	r3, [r3, #72]	; 0x48
 80031a8:	4313      	orrs	r3, r2
 80031aa:	f8c1 3088 	str.w	r3, [r1, #136]	; 0x88
 80031ae:	687b      	ldr	r3, [r7, #4]
 80031b0:	681b      	ldr	r3, [r3, #0]
 80031b2:	f003 0310 	and.w	r3, r3, #16
 80031b6:	2b00      	cmp	r3, #0
 80031b8:	d00a      	beq.n	80031d0 <HAL_RCCEx_PeriphCLKConfig+0x320>
 80031ba:	4978      	ldr	r1, [pc, #480]	; (800339c <HAL_RCCEx_PeriphCLKConfig+0x4ec>)
 80031bc:	4b77      	ldr	r3, [pc, #476]	; (800339c <HAL_RCCEx_PeriphCLKConfig+0x4ec>)
 80031be:	f8d3 3088 	ldr.w	r3, [r3, #136]	; 0x88
 80031c2:	f423 7240 	bic.w	r2, r3, #768	; 0x300
 80031c6:	687b      	ldr	r3, [r7, #4]
 80031c8:	6cdb      	ldr	r3, [r3, #76]	; 0x4c
 80031ca:	4313      	orrs	r3, r2
 80031cc:	f8c1 3088 	str.w	r3, [r1, #136]	; 0x88
 80031d0:	687b      	ldr	r3, [r7, #4]
 80031d2:	681b      	ldr	r3, [r3, #0]
 80031d4:	f003 0320 	and.w	r3, r3, #32
 80031d8:	2b00      	cmp	r3, #0
 80031da:	d00a      	beq.n	80031f2 <HAL_RCCEx_PeriphCLKConfig+0x342>
 80031dc:	496f      	ldr	r1, [pc, #444]	; (800339c <HAL_RCCEx_PeriphCLKConfig+0x4ec>)
 80031de:	4b6f      	ldr	r3, [pc, #444]	; (800339c <HAL_RCCEx_PeriphCLKConfig+0x4ec>)
 80031e0:	f8d3 3088 	ldr.w	r3, [r3, #136]	; 0x88
 80031e4:	f423 6240 	bic.w	r2, r3, #3072	; 0xc00
 80031e8:	687b      	ldr	r3, [r7, #4]
 80031ea:	6d1b      	ldr	r3, [r3, #80]	; 0x50
 80031ec:	4313      	orrs	r3, r2
 80031ee:	f8c1 3088 	str.w	r3, [r1, #136]	; 0x88
 80031f2:	687b      	ldr	r3, [r7, #4]
 80031f4:	681b      	ldr	r3, [r3, #0]
 80031f6:	f403 7300 	and.w	r3, r3, #512	; 0x200
 80031fa:	2b00      	cmp	r3, #0
 80031fc:	d00a      	beq.n	8003214 <HAL_RCCEx_PeriphCLKConfig+0x364>
 80031fe:	4967      	ldr	r1, [pc, #412]	; (800339c <HAL_RCCEx_PeriphCLKConfig+0x4ec>)
 8003200:	4b66      	ldr	r3, [pc, #408]	; (800339c <HAL_RCCEx_PeriphCLKConfig+0x4ec>)
 8003202:	f8d3 3088 	ldr.w	r3, [r3, #136]	; 0x88
 8003206:	f423 2240 	bic.w	r2, r3, #786432	; 0xc0000
 800320a:	687b      	ldr	r3, [r7, #4]
 800320c:	6e5b      	ldr	r3, [r3, #100]	; 0x64
 800320e:	4313      	orrs	r3, r2
 8003210:	f8c1 3088 	str.w	r3, [r1, #136]	; 0x88
 8003214:	687b      	ldr	r3, [r7, #4]
 8003216:	681b      	ldr	r3, [r3, #0]
 8003218:	f403 6380 	and.w	r3, r3, #1024	; 0x400
 800321c:	2b00      	cmp	r3, #0
 800321e:	d00a      	beq.n	8003236 <HAL_RCCEx_PeriphCLKConfig+0x386>
 8003220:	495e      	ldr	r1, [pc, #376]	; (800339c <HAL_RCCEx_PeriphCLKConfig+0x4ec>)
 8003222:	4b5e      	ldr	r3, [pc, #376]	; (800339c <HAL_RCCEx_PeriphCLKConfig+0x4ec>)
 8003224:	f8d3 3088 	ldr.w	r3, [r3, #136]	; 0x88
 8003228:	f423 1240 	bic.w	r2, r3, #3145728	; 0x300000
 800322c:	687b      	ldr	r3, [r7, #4]
 800322e:	6e9b      	ldr	r3, [r3, #104]	; 0x68
 8003230:	4313      	orrs	r3, r2
 8003232:	f8c1 3088 	str.w	r3, [r1, #136]	; 0x88
 8003236:	687b      	ldr	r3, [r7, #4]
 8003238:	681b      	ldr	r3, [r3, #0]
 800323a:	f003 0340 	and.w	r3, r3, #64	; 0x40
 800323e:	2b00      	cmp	r3, #0
 8003240:	d00a      	beq.n	8003258 <HAL_RCCEx_PeriphCLKConfig+0x3a8>
 8003242:	4956      	ldr	r1, [pc, #344]	; (800339c <HAL_RCCEx_PeriphCLKConfig+0x4ec>)
 8003244:	4b55      	ldr	r3, [pc, #340]	; (800339c <HAL_RCCEx_PeriphCLKConfig+0x4ec>)
 8003246:	f8d3 3088 	ldr.w	r3, [r3, #136]	; 0x88
 800324a:	f423 5240 	bic.w	r2, r3, #12288	; 0x3000
 800324e:	687b      	ldr	r3, [r7, #4]
 8003250:	6d5b      	ldr	r3, [r3, #84]	; 0x54
 8003252:	4313      	orrs	r3, r2
 8003254:	f8c1 3088 	str.w	r3, [r1, #136]	; 0x88
 8003258:	687b      	ldr	r3, [r7, #4]
 800325a:	681b      	ldr	r3, [r3, #0]
 800325c:	f003 0380 	and.w	r3, r3, #128	; 0x80
 8003260:	2b00      	cmp	r3, #0
 8003262:	d00a      	beq.n	800327a <HAL_RCCEx_PeriphCLKConfig+0x3ca>
 8003264:	494d      	ldr	r1, [pc, #308]	; (800339c <HAL_RCCEx_PeriphCLKConfig+0x4ec>)
 8003266:	4b4d      	ldr	r3, [pc, #308]	; (800339c <HAL_RCCEx_PeriphCLKConfig+0x4ec>)
 8003268:	f8d3 3088 	ldr.w	r3, [r3, #136]	; 0x88
 800326c:	f423 4240 	bic.w	r2, r3, #49152	; 0xc000
 8003270:	687b      	ldr	r3, [r7, #4]
 8003272:	6d9b      	ldr	r3, [r3, #88]	; 0x58
 8003274:	4313      	orrs	r3, r2
 8003276:	f8c1 3088 	str.w	r3, [r1, #136]	; 0x88
 800327a:	687b      	ldr	r3, [r7, #4]
 800327c:	681b      	ldr	r3, [r3, #0]
 800327e:	f403 7380 	and.w	r3, r3, #256	; 0x100
 8003282:	2b00      	cmp	r3, #0
 8003284:	d00a      	beq.n	800329c <HAL_RCCEx_PeriphCLKConfig+0x3ec>
 8003286:	4945      	ldr	r1, [pc, #276]	; (800339c <HAL_RCCEx_PeriphCLKConfig+0x4ec>)
 8003288:	4b44      	ldr	r3, [pc, #272]	; (800339c <HAL_RCCEx_PeriphCLKConfig+0x4ec>)
 800328a:	f8d3 3088 	ldr.w	r3, [r3, #136]	; 0x88
 800328e:	f423 3240 	bic.w	r2, r3, #196608	; 0x30000
 8003292:	687b      	ldr	r3, [r7, #4]
 8003294:	6ddb      	ldr	r3, [r3, #92]	; 0x5c
 8003296:	4313      	orrs	r3, r2
 8003298:	f8c1 3088 	str.w	r3, [r1, #136]	; 0x88
 800329c:	687b      	ldr	r3, [r7, #4]
 800329e:	681b      	ldr	r3, [r3, #0]
 80032a0:	f403 1380 	and.w	r3, r3, #1048576	; 0x100000
 80032a4:	2b00      	cmp	r3, #0
 80032a6:	d00a      	beq.n	80032be <HAL_RCCEx_PeriphCLKConfig+0x40e>
 80032a8:	493c      	ldr	r1, [pc, #240]	; (800339c <HAL_RCCEx_PeriphCLKConfig+0x4ec>)
 80032aa:	4b3c      	ldr	r3, [pc, #240]	; (800339c <HAL_RCCEx_PeriphCLKConfig+0x4ec>)
 80032ac:	f8d3 309c 	ldr.w	r3, [r3, #156]	; 0x9c
 80032b0:	f023 0203 	bic.w	r2, r3, #3
 80032b4:	687b      	ldr	r3, [r7, #4]
 80032b6:	6e1b      	ldr	r3, [r3, #96]	; 0x60
 80032b8:	4313      	orrs	r3, r2
 80032ba:	f8c1 309c 	str.w	r3, [r1, #156]	; 0x9c
 80032be:	687b      	ldr	r3, [r7, #4]
 80032c0:	681b      	ldr	r3, [r3, #0]
 80032c2:	f403 5300 	and.w	r3, r3, #8192	; 0x2000
 80032c6:	2b00      	cmp	r3, #0
 80032c8:	d028      	beq.n	800331c <HAL_RCCEx_PeriphCLKConfig+0x46c>
 80032ca:	4934      	ldr	r1, [pc, #208]	; (800339c <HAL_RCCEx_PeriphCLKConfig+0x4ec>)
 80032cc:	4b33      	ldr	r3, [pc, #204]	; (800339c <HAL_RCCEx_PeriphCLKConfig+0x4ec>)
 80032ce:	f8d3 3088 	ldr.w	r3, [r3, #136]	; 0x88
 80032d2:	f023 6240 	bic.w	r2, r3, #201326592	; 0xc000000
 80032d6:	687b      	ldr	r3, [r7, #4]
 80032d8:	6f5b      	ldr	r3, [r3, #116]	; 0x74
 80032da:	4313      	orrs	r3, r2
 80032dc:	f8c1 3088 	str.w	r3, [r1, #136]	; 0x88
 80032e0:	687b      	ldr	r3, [r7, #4]
 80032e2:	6f5b      	ldr	r3, [r3, #116]	; 0x74
 80032e4:	f1b3 6f00 	cmp.w	r3, #134217728	; 0x8000000
 80032e8:	d106      	bne.n	80032f8 <HAL_RCCEx_PeriphCLKConfig+0x448>
 80032ea:	4a2c      	ldr	r2, [pc, #176]	; (800339c <HAL_RCCEx_PeriphCLKConfig+0x4ec>)
 80032ec:	4b2b      	ldr	r3, [pc, #172]	; (800339c <HAL_RCCEx_PeriphCLKConfig+0x4ec>)
 80032ee:	68db      	ldr	r3, [r3, #12]
 80032f0:	f443 1380 	orr.w	r3, r3, #1048576	; 0x100000
 80032f4:	60d3      	str	r3, [r2, #12]
 80032f6:	e011      	b.n	800331c <HAL_RCCEx_PeriphCLKConfig+0x46c>
 80032f8:	687b      	ldr	r3, [r7, #4]
 80032fa:	6f5b      	ldr	r3, [r3, #116]	; 0x74
 80032fc:	f1b3 6f80 	cmp.w	r3, #67108864	; 0x4000000
 8003300:	d10c      	bne.n	800331c <HAL_RCCEx_PeriphCLKConfig+0x46c>
 8003302:	687b      	ldr	r3, [r7, #4]
 8003304:	3304      	adds	r3, #4
 8003306:	2101      	movs	r1, #1
 8003308:	4618      	mov	r0, r3
 800330a:	f000 ff11 	bl	8004130 <RCCEx_PLLSAI1_Config>
 800330e:	4603      	mov	r3, r0
 8003310:	74fb      	strb	r3, [r7, #19]
 8003312:	7cfb      	ldrb	r3, [r7, #19]
 8003314:	2b00      	cmp	r3, #0
 8003316:	d001      	beq.n	800331c <HAL_RCCEx_PeriphCLKConfig+0x46c>
 8003318:	7cfb      	ldrb	r3, [r7, #19]
 800331a:	74bb      	strb	r3, [r7, #18]
 800331c:	687b      	ldr	r3, [r7, #4]
 800331e:	681b      	ldr	r3, [r3, #0]
 8003320:	f403 2300 	and.w	r3, r3, #524288	; 0x80000
 8003324:	2b00      	cmp	r3, #0
 8003326:	d04d      	beq.n	80033c4 <HAL_RCCEx_PeriphCLKConfig+0x514>
 8003328:	687b      	ldr	r3, [r7, #4]
 800332a:	6f9b      	ldr	r3, [r3, #120]	; 0x78
 800332c:	f5b3 4f80 	cmp.w	r3, #16384	; 0x4000
 8003330:	d108      	bne.n	8003344 <HAL_RCCEx_PeriphCLKConfig+0x494>
 8003332:	4a1a      	ldr	r2, [pc, #104]	; (800339c <HAL_RCCEx_PeriphCLKConfig+0x4ec>)
 8003334:	4b19      	ldr	r3, [pc, #100]	; (800339c <HAL_RCCEx_PeriphCLKConfig+0x4ec>)
 8003336:	f8d3 309c 	ldr.w	r3, [r3, #156]	; 0x9c
 800333a:	f443 4380 	orr.w	r3, r3, #16384	; 0x4000
 800333e:	f8c2 309c 	str.w	r3, [r2, #156]	; 0x9c
 8003342:	e012      	b.n	800336a <HAL_RCCEx_PeriphCLKConfig+0x4ba>
 8003344:	4a15      	ldr	r2, [pc, #84]	; (800339c <HAL_RCCEx_PeriphCLKConfig+0x4ec>)
 8003346:	4b15      	ldr	r3, [pc, #84]	; (800339c <HAL_RCCEx_PeriphCLKConfig+0x4ec>)
 8003348:	f8d3 309c 	ldr.w	r3, [r3, #156]	; 0x9c
 800334c:	f423 4380 	bic.w	r3, r3, #16384	; 0x4000
 8003350:	f8c2 309c 	str.w	r3, [r2, #156]	; 0x9c
 8003354:	4911      	ldr	r1, [pc, #68]	; (800339c <HAL_RCCEx_PeriphCLKConfig+0x4ec>)
 8003356:	4b11      	ldr	r3, [pc, #68]	; (800339c <HAL_RCCEx_PeriphCLKConfig+0x4ec>)
 8003358:	f8d3 3088 	ldr.w	r3, [r3, #136]	; 0x88
 800335c:	f023 6240 	bic.w	r2, r3, #201326592	; 0xc000000
 8003360:	687b      	ldr	r3, [r7, #4]
 8003362:	6f9b      	ldr	r3, [r3, #120]	; 0x78
 8003364:	4313      	orrs	r3, r2
 8003366:	f8c1 3088 	str.w	r3, [r1, #136]	; 0x88
 800336a:	687b      	ldr	r3, [r7, #4]
 800336c:	6f9b      	ldr	r3, [r3, #120]	; 0x78
 800336e:	f1b3 6f00 	cmp.w	r3, #134217728	; 0x8000000
 8003372:	d106      	bne.n	8003382 <HAL_RCCEx_PeriphCLKConfig+0x4d2>
 8003374:	4a09      	ldr	r2, [pc, #36]	; (800339c <HAL_RCCEx_PeriphCLKConfig+0x4ec>)
 8003376:	4b09      	ldr	r3, [pc, #36]	; (800339c <HAL_RCCEx_PeriphCLKConfig+0x4ec>)
 8003378:	68db      	ldr	r3, [r3, #12]
 800337a:	f443 1380 	orr.w	r3, r3, #1048576	; 0x100000
 800337e:	60d3      	str	r3, [r2, #12]
 8003380:	e020      	b.n	80033c4 <HAL_RCCEx_PeriphCLKConfig+0x514>
 8003382:	687b      	ldr	r3, [r7, #4]
 8003384:	6f9b      	ldr	r3, [r3, #120]	; 0x78
 8003386:	f5b3 4f80 	cmp.w	r3, #16384	; 0x4000
 800338a:	d109      	bne.n	80033a0 <HAL_RCCEx_PeriphCLKConfig+0x4f0>
 800338c:	4a03      	ldr	r2, [pc, #12]	; (800339c <HAL_RCCEx_PeriphCLKConfig+0x4ec>)
 800338e:	4b03      	ldr	r3, [pc, #12]	; (800339c <HAL_RCCEx_PeriphCLKConfig+0x4ec>)
 8003390:	68db      	ldr	r3, [r3, #12]
 8003392:	f443 3380 	orr.w	r3, r3, #65536	; 0x10000
 8003396:	60d3      	str	r3, [r2, #12]
 8003398:	e014      	b.n	80033c4 <HAL_RCCEx_PeriphCLKConfig+0x514>
 800339a:	bf00      	nop
 800339c:	40021000 	andmi	r1, r2, r0
 80033a0:	687b      	ldr	r3, [r7, #4]
 80033a2:	6f9b      	ldr	r3, [r3, #120]	; 0x78
 80033a4:	f1b3 6f80 	cmp.w	r3, #67108864	; 0x4000000
 80033a8:	d10c      	bne.n	80033c4 <HAL_RCCEx_PeriphCLKConfig+0x514>
 80033aa:	687b      	ldr	r3, [r7, #4]
 80033ac:	3304      	adds	r3, #4
 80033ae:	2101      	movs	r1, #1
 80033b0:	4618      	mov	r0, r3
 80033b2:	f000 febd 	bl	8004130 <RCCEx_PLLSAI1_Config>
 80033b6:	4603      	mov	r3, r0
 80033b8:	74fb      	strb	r3, [r7, #19]
 80033ba:	7cfb      	ldrb	r3, [r7, #19]
 80033bc:	2b00      	cmp	r3, #0
 80033be:	d001      	beq.n	80033c4 <HAL_RCCEx_PeriphCLKConfig+0x514>
 80033c0:	7cfb      	ldrb	r3, [r7, #19]
 80033c2:	74bb      	strb	r3, [r7, #18]
 80033c4:	687b      	ldr	r3, [r7, #4]
 80033c6:	681b      	ldr	r3, [r3, #0]
 80033c8:	f403 2380 	and.w	r3, r3, #262144	; 0x40000
